

Microchip MPLAB XC8 Assembler V3.10 build 20250813170317 
                                                                                               Tue Jan 20 16:40:57 2026

Microchip MPLAB XC8 C Compiler v3.10 (Free license) build 20250813170317 Og1 
     1                           	processor	16F877A
     2                           	pagewidth 120
     3                           	opt	flic
     4                           	psect	idataCOMMON,global,class=CODE,space=0,delta=2,noexec
     5                           	psect	idataBANK0,global,class=CODE,space=0,delta=2,noexec
     6                           	psect	strings,global,class=STRING,space=0,delta=2,noexec
     7                           	psect	stringtext,global,reloc=256,class=STRCODE,space=0,delta=2,noexec
     8                           	psect	cinit,global,class=CODE,space=0,merge=1,delta=2
     9                           	psect	bssCOMMON,global,class=COMMON,space=1,delta=1,noexec
    10                           	psect	dataCOMMON,global,class=COMMON,space=1,delta=1,noexec
    11                           	psect	bssBANK0,global,class=BANK0,space=1,delta=1,noexec
    12                           	psect	dataBANK0,global,class=BANK0,space=1,delta=1,noexec
    13                           	psect	cstackCOMMON,global,class=COMMON,space=1,delta=1,noexec
    14                           	psect	cstackBANK0,global,class=BANK0,space=1,delta=1,noexec
    15                           	psect	maintext,global,class=CODE,space=0,split=1,delta=2
    16                           	psect	text1,local,class=CODE,space=0,merge=1,delta=2
    17                           	psect	text2,local,class=CODE,space=0,merge=1,delta=2,group=1
    18                           	psect	text3,local,class=CODE,space=0,merge=1,delta=2
    19                           	psect	text4,local,class=CODE,space=0,merge=1,delta=2,group=1
    20                           	psect	text5,local,class=CODE,space=0,merge=1,delta=2,group=1
    21                           	psect	text6,local,class=CODE,space=0,merge=1,delta=2,group=1
    22                           	psect	text7,local,class=CODE,space=0,merge=1,delta=2
    23                           	psect	text8,local,class=CODE,space=0,merge=1,delta=2
    24                           	psect	text9,local,class=CODE,space=0,merge=1,delta=2
    25                           	psect	text10,local,class=CODE,space=0,merge=1,delta=2
    26                           	psect	text11,local,class=CODE,space=0,merge=1,delta=2
    27                           	psect	text12,local,class=CODE,space=0,merge=1,delta=2
    28                           	psect	text13,local,class=CODE,space=0,merge=1,delta=2
    29                           	psect	text14,local,class=CODE,space=0,merge=1,delta=2
    30                           	psect	text15,local,class=CODE,space=0,merge=1,delta=2
    31                           	psect	text16,local,class=CODE,space=0,merge=1,delta=2
    32                           	psect	text17,local,class=CODE,space=0,merge=1,delta=2
    33                           	psect	text18,local,class=CODE,space=0,merge=1,delta=2,group=1
    34                           	psect	text19,local,class=CODE,space=0,merge=1,delta=2,group=1
    35                           	psect	text20,local,class=CODE,space=0,merge=1,delta=2
    36                           	psect	text21,local,class=CODE,space=0,merge=1,delta=2
    37                           	psect	text22,local,class=CODE,space=0,merge=1,delta=2
    38                           	psect	text23,local,class=CODE,space=0,merge=1,delta=2
    39                           	psect	text24,local,class=CODE,space=0,merge=1,delta=2
    40                           	psect	text25,local,class=CODE,space=0,merge=1,delta=2
    41                           	psect	intentry,global,class=CODE,space=0,delta=2
    42                           	psect	config,global,abs,ovrld,class=CONFIG,space=4,delta=2,noexec
    43                           	dabs	1,0x7E,2
    44     0000                     
    45                           ; Version 2.20
    46                           ; Generated 12/02/2020 GMT
    47                           ; 
    48                           ; Copyright © 2020, Microchip Technology Inc. and its subsidiaries ("Microchip")
    49                           ; All rights reserved.
    50                           ; 
    51                           ; This software is developed by Microchip Technology Inc. and its subsidiaries ("Microch
      +                          ip").
    52                           ; 
    53                           ; Redistribution and use in source and binary forms, with or without modification, are
    54                           ; permitted provided that the following conditions are met:
    55                           ; 
    56                           ;     1. Redistributions of source code must retain the above copyright notice, this lis
      +                          t of
    57                           ;        conditions and the following disclaimer.
    58                           ; 
    59                           ;     2. Redistributions in binary form must reproduce the above copyright notice, this 
      +                          list
    60                           ;        of conditions and the following disclaimer in the documentation and/or other
    61                           ;        materials provided with the distribution.
    62                           ; 
    63                           ;     3. Microchip's name may not be used to endorse or promote products derived from th
      +                          is
    64                           ;        software without specific prior written permission.
    65                           ; 
    66                           ; THIS SOFTWARE IS PROVIDED BY MICROCHIP "AS IS" AND ANY EXPRESS OR IMPLIED WARRANTIES,
    67                           ; INCLUDING, BUT NOT LIMITED TO, THE IMPLIED WARRANTIES OF MERCHANTABILITY AND FITNESS F
      +                          OR
    68                           ; PURPOSE ARE DISCLAIMED.  IN NO EVENT SHALL MICROCHIP BE LIABLE FOR ANY DIRECT, INDIREC
      +                          T,
    69                           ; INCIDENTAL, SPECIAL, EXEMPLARY, OR CONSEQUENTIAL DAMAGES (INCLUDING BUT NOT LIMITED TO
    70                           ; PROCUREMENT OF SUBSTITUTE GOODS OR SERVICES; LOSS OF USE, DATA OR PROFITS; OR BUSINESS
    71                           ; INTERRUPTION) HOWSOEVER CAUSED AND ON ANY THEORY OF LIABILITY, WHETHER IN CONTRACT, ST
      +                          RICT
    72                           ; LIABILITY, OR TORT (INCLUDING NEGLIGENCE OR OTHERWISE) ARISING IN ANY WAY OUT OF THE U
      +                          SE OF
    73                           ; THIS SOFTWARE, EVEN IF ADVISED OF THE POSSIBILITY OF SUCH DAMAGE.
    74                           ; 
    75                           ; 
    76                           ; Code-generator required, PIC16F877A Definitions
    77                           ; 
    78                           ; SFR Addresses
    79     0004                     fsr             equ	4
    80     0004                     fsr0            equ	4
    81     0000                     indf            equ	0
    82     0000                     indf0           equ	0
    83     0002                     pc              equ	2
    84     0002                     pcl             equ	2
    85     000A                     pclath          equ	10
    86     0003                     status          equ	3
    87     0000                     INDF            equ	0	;# 
    88     0001                     TMR0            equ	1	;# 
    89     0002                     PCL             equ	2	;# 
    90     0003                     STATUS          equ	3	;# 
    91     0004                     FSR             equ	4	;# 
    92     0005                     PORTA           equ	5	;# 
    93     0006                     PORTB           equ	6	;# 
    94     0007                     PORTC           equ	7	;# 
    95     0008                     PORTD           equ	8	;# 
    96     0009                     PORTE           equ	9	;# 
    97     000A                     PCLATH          equ	10	;# 
    98     000B                     INTCON          equ	11	;# 
    99     000C                     PIR1            equ	12	;# 
   100     000D                     PIR2            equ	13	;# 
   101     000E                     TMR1            equ	14	;# 
   102     000E                     TMR1L           equ	14	;# 
   103     000F                     TMR1H           equ	15	;# 
   104     0010                     T1CON           equ	16	;# 
   105     0011                     TMR2            equ	17	;# 
   106     0012                     T2CON           equ	18	;# 
   107     0013                     SSPBUF          equ	19	;# 
   108     0014                     SSPCON          equ	20	;# 
   109     0015                     CCPR1           equ	21	;# 
   110     0015                     CCPR1L          equ	21	;# 
   111     0016                     CCPR1H          equ	22	;# 
   112     0017                     CCP1CON         equ	23	;# 
   113     0018                     RCSTA           equ	24	;# 
   114     0019                     TXREG           equ	25	;# 
   115     001A                     RCREG           equ	26	;# 
   116     001B                     CCPR2           equ	27	;# 
   117     001B                     CCPR2L          equ	27	;# 
   118     001C                     CCPR2H          equ	28	;# 
   119     001D                     CCP2CON         equ	29	;# 
   120     001E                     ADRESH          equ	30	;# 
   121     001F                     ADCON0          equ	31	;# 
   122     0081                     OPTION_REG      equ	129	;# 
   123     0085                     TRISA           equ	133	;# 
   124     0086                     TRISB           equ	134	;# 
   125     0087                     TRISC           equ	135	;# 
   126     0088                     TRISD           equ	136	;# 
   127     0089                     TRISE           equ	137	;# 
   128     008C                     PIE1            equ	140	;# 
   129     008D                     PIE2            equ	141	;# 
   130     008E                     PCON            equ	142	;# 
   131     0091                     SSPCON2         equ	145	;# 
   132     0092                     PR2             equ	146	;# 
   133     0093                     SSPADD          equ	147	;# 
   134     0094                     SSPSTAT         equ	148	;# 
   135     0098                     TXSTA           equ	152	;# 
   136     0099                     SPBRG           equ	153	;# 
   137     009C                     CMCON           equ	156	;# 
   138     009D                     CVRCON          equ	157	;# 
   139     009E                     ADRESL          equ	158	;# 
   140     009F                     ADCON1          equ	159	;# 
   141     010C                     EEDATA          equ	268	;# 
   142     010D                     EEADR           equ	269	;# 
   143     010E                     EEDATH          equ	270	;# 
   144     010F                     EEADRH          equ	271	;# 
   145     018C                     EECON1          equ	396	;# 
   146     018D                     EECON2          equ	397	;# 
   147     0000                     INDF            equ	0	;# 
   148     0001                     TMR0            equ	1	;# 
   149     0002                     PCL             equ	2	;# 
   150     0003                     STATUS          equ	3	;# 
   151     0004                     FSR             equ	4	;# 
   152     0005                     PORTA           equ	5	;# 
   153     0006                     PORTB           equ	6	;# 
   154     0007                     PORTC           equ	7	;# 
   155     0008                     PORTD           equ	8	;# 
   156     0009                     PORTE           equ	9	;# 
   157     000A                     PCLATH          equ	10	;# 
   158     000B                     INTCON          equ	11	;# 
   159     000C                     PIR1            equ	12	;# 
   160     000D                     PIR2            equ	13	;# 
   161     000E                     TMR1            equ	14	;# 
   162     000E                     TMR1L           equ	14	;# 
   163     000F                     TMR1H           equ	15	;# 
   164     0010                     T1CON           equ	16	;# 
   165     0011                     TMR2            equ	17	;# 
   166     0012                     T2CON           equ	18	;# 
   167     0013                     SSPBUF          equ	19	;# 
   168     0014                     SSPCON          equ	20	;# 
   169     0015                     CCPR1           equ	21	;# 
   170     0015                     CCPR1L          equ	21	;# 
   171     0016                     CCPR1H          equ	22	;# 
   172     0017                     CCP1CON         equ	23	;# 
   173     0018                     RCSTA           equ	24	;# 
   174     0019                     TXREG           equ	25	;# 
   175     001A                     RCREG           equ	26	;# 
   176     001B                     CCPR2           equ	27	;# 
   177     001B                     CCPR2L          equ	27	;# 
   178     001C                     CCPR2H          equ	28	;# 
   179     001D                     CCP2CON         equ	29	;# 
   180     001E                     ADRESH          equ	30	;# 
   181     001F                     ADCON0          equ	31	;# 
   182     0081                     OPTION_REG      equ	129	;# 
   183     0085                     TRISA           equ	133	;# 
   184     0086                     TRISB           equ	134	;# 
   185     0087                     TRISC           equ	135	;# 
   186     0088                     TRISD           equ	136	;# 
   187     0089                     TRISE           equ	137	;# 
   188     008C                     PIE1            equ	140	;# 
   189     008D                     PIE2            equ	141	;# 
   190     008E                     PCON            equ	142	;# 
   191     0091                     SSPCON2         equ	145	;# 
   192     0092                     PR2             equ	146	;# 
   193     0093                     SSPADD          equ	147	;# 
   194     0094                     SSPSTAT         equ	148	;# 
   195     0098                     TXSTA           equ	152	;# 
   196     0099                     SPBRG           equ	153	;# 
   197     009C                     CMCON           equ	156	;# 
   198     009D                     CVRCON          equ	157	;# 
   199     009E                     ADRESL          equ	158	;# 
   200     009F                     ADCON1          equ	159	;# 
   201     010C                     EEDATA          equ	268	;# 
   202     010D                     EEADR           equ	269	;# 
   203     010E                     EEDATH          equ	270	;# 
   204     010F                     EEADRH          equ	271	;# 
   205     018C                     EECON1          equ	396	;# 
   206     018D                     EECON2          equ	397	;# 
   207     0000                     INDF            equ	0	;# 
   208     0001                     TMR0            equ	1	;# 
   209     0002                     PCL             equ	2	;# 
   210     0003                     STATUS          equ	3	;# 
   211     0004                     FSR             equ	4	;# 
   212     0005                     PORTA           equ	5	;# 
   213     0006                     PORTB           equ	6	;# 
   214     0007                     PORTC           equ	7	;# 
   215     0008                     PORTD           equ	8	;# 
   216     0009                     PORTE           equ	9	;# 
   217     000A                     PCLATH          equ	10	;# 
   218     000B                     INTCON          equ	11	;# 
   219     000C                     PIR1            equ	12	;# 
   220     000D                     PIR2            equ	13	;# 
   221     000E                     TMR1            equ	14	;# 
   222     000E                     TMR1L           equ	14	;# 
   223     000F                     TMR1H           equ	15	;# 
   224     0010                     T1CON           equ	16	;# 
   225     0011                     TMR2            equ	17	;# 
   226     0012                     T2CON           equ	18	;# 
   227     0013                     SSPBUF          equ	19	;# 
   228     0014                     SSPCON          equ	20	;# 
   229     0015                     CCPR1           equ	21	;# 
   230     0015                     CCPR1L          equ	21	;# 
   231     0016                     CCPR1H          equ	22	;# 
   232     0017                     CCP1CON         equ	23	;# 
   233     0018                     RCSTA           equ	24	;# 
   234     0019                     TXREG           equ	25	;# 
   235     001A                     RCREG           equ	26	;# 
   236     001B                     CCPR2           equ	27	;# 
   237     001B                     CCPR2L          equ	27	;# 
   238     001C                     CCPR2H          equ	28	;# 
   239     001D                     CCP2CON         equ	29	;# 
   240     001E                     ADRESH          equ	30	;# 
   241     001F                     ADCON0          equ	31	;# 
   242     0081                     OPTION_REG      equ	129	;# 
   243     0085                     TRISA           equ	133	;# 
   244     0086                     TRISB           equ	134	;# 
   245     0087                     TRISC           equ	135	;# 
   246     0088                     TRISD           equ	136	;# 
   247     0089                     TRISE           equ	137	;# 
   248     008C                     PIE1            equ	140	;# 
   249     008D                     PIE2            equ	141	;# 
   250     008E                     PCON            equ	142	;# 
   251     0091                     SSPCON2         equ	145	;# 
   252     0092                     PR2             equ	146	;# 
   253     0093                     SSPADD          equ	147	;# 
   254     0094                     SSPSTAT         equ	148	;# 
   255     0098                     TXSTA           equ	152	;# 
   256     0099                     SPBRG           equ	153	;# 
   257     009C                     CMCON           equ	156	;# 
   258     009D                     CVRCON          equ	157	;# 
   259     009E                     ADRESL          equ	158	;# 
   260     009F                     ADCON1          equ	159	;# 
   261     010C                     EEDATA          equ	268	;# 
   262     010D                     EEADR           equ	269	;# 
   263     010E                     EEDATH          equ	270	;# 
   264     010F                     EEADRH          equ	271	;# 
   265     018C                     EECON1          equ	396	;# 
   266     018D                     EECON2          equ	397	;# 
   267     0000                     INDF            equ	0	;# 
   268     0001                     TMR0            equ	1	;# 
   269     0002                     PCL             equ	2	;# 
   270     0003                     STATUS          equ	3	;# 
   271     0004                     FSR             equ	4	;# 
   272     0005                     PORTA           equ	5	;# 
   273     0006                     PORTB           equ	6	;# 
   274     0007                     PORTC           equ	7	;# 
   275     0008                     PORTD           equ	8	;# 
   276     0009                     PORTE           equ	9	;# 
   277     000A                     PCLATH          equ	10	;# 
   278     000B                     INTCON          equ	11	;# 
   279     000C                     PIR1            equ	12	;# 
   280     000D                     PIR2            equ	13	;# 
   281     000E                     TMR1            equ	14	;# 
   282     000E                     TMR1L           equ	14	;# 
   283     000F                     TMR1H           equ	15	;# 
   284     0010                     T1CON           equ	16	;# 
   285     0011                     TMR2            equ	17	;# 
   286     0012                     T2CON           equ	18	;# 
   287     0013                     SSPBUF          equ	19	;# 
   288     0014                     SSPCON          equ	20	;# 
   289     0015                     CCPR1           equ	21	;# 
   290     0015                     CCPR1L          equ	21	;# 
   291     0016                     CCPR1H          equ	22	;# 
   292     0017                     CCP1CON         equ	23	;# 
   293     0018                     RCSTA           equ	24	;# 
   294     0019                     TXREG           equ	25	;# 
   295     001A                     RCREG           equ	26	;# 
   296     001B                     CCPR2           equ	27	;# 
   297     001B                     CCPR2L          equ	27	;# 
   298     001C                     CCPR2H          equ	28	;# 
   299     001D                     CCP2CON         equ	29	;# 
   300     001E                     ADRESH          equ	30	;# 
   301     001F                     ADCON0          equ	31	;# 
   302     0081                     OPTION_REG      equ	129	;# 
   303     0085                     TRISA           equ	133	;# 
   304     0086                     TRISB           equ	134	;# 
   305     0087                     TRISC           equ	135	;# 
   306     0088                     TRISD           equ	136	;# 
   307     0089                     TRISE           equ	137	;# 
   308     008C                     PIE1            equ	140	;# 
   309     008D                     PIE2            equ	141	;# 
   310     008E                     PCON            equ	142	;# 
   311     0091                     SSPCON2         equ	145	;# 
   312     0092                     PR2             equ	146	;# 
   313     0093                     SSPADD          equ	147	;# 
   314     0094                     SSPSTAT         equ	148	;# 
   315     0098                     TXSTA           equ	152	;# 
   316     0099                     SPBRG           equ	153	;# 
   317     009C                     CMCON           equ	156	;# 
   318     009D                     CVRCON          equ	157	;# 
   319     009E                     ADRESL          equ	158	;# 
   320     009F                     ADCON1          equ	159	;# 
   321     010C                     EEDATA          equ	268	;# 
   322     010D                     EEADR           equ	269	;# 
   323     010E                     EEDATH          equ	270	;# 
   324     010F                     EEADRH          equ	271	;# 
   325     018C                     EECON1          equ	396	;# 
   326     018D                     EECON2          equ	397	;# 
   327     0000                     INDF            equ	0	;# 
   328     0001                     TMR0            equ	1	;# 
   329     0002                     PCL             equ	2	;# 
   330     0003                     STATUS          equ	3	;# 
   331     0004                     FSR             equ	4	;# 
   332     0005                     PORTA           equ	5	;# 
   333     0006                     PORTB           equ	6	;# 
   334     0007                     PORTC           equ	7	;# 
   335     0008                     PORTD           equ	8	;# 
   336     0009                     PORTE           equ	9	;# 
   337     000A                     PCLATH          equ	10	;# 
   338     000B                     INTCON          equ	11	;# 
   339     000C                     PIR1            equ	12	;# 
   340     000D                     PIR2            equ	13	;# 
   341     000E                     TMR1            equ	14	;# 
   342     000E                     TMR1L           equ	14	;# 
   343     000F                     TMR1H           equ	15	;# 
   344     0010                     T1CON           equ	16	;# 
   345     0011                     TMR2            equ	17	;# 
   346     0012                     T2CON           equ	18	;# 
   347     0013                     SSPBUF          equ	19	;# 
   348     0014                     SSPCON          equ	20	;# 
   349     0015                     CCPR1           equ	21	;# 
   350     0015                     CCPR1L          equ	21	;# 
   351     0016                     CCPR1H          equ	22	;# 
   352     0017                     CCP1CON         equ	23	;# 
   353     0018                     RCSTA           equ	24	;# 
   354     0019                     TXREG           equ	25	;# 
   355     001A                     RCREG           equ	26	;# 
   356     001B                     CCPR2           equ	27	;# 
   357     001B                     CCPR2L          equ	27	;# 
   358     001C                     CCPR2H          equ	28	;# 
   359     001D                     CCP2CON         equ	29	;# 
   360     001E                     ADRESH          equ	30	;# 
   361     001F                     ADCON0          equ	31	;# 
   362     0081                     OPTION_REG      equ	129	;# 
   363     0085                     TRISA           equ	133	;# 
   364     0086                     TRISB           equ	134	;# 
   365     0087                     TRISC           equ	135	;# 
   366     0088                     TRISD           equ	136	;# 
   367     0089                     TRISE           equ	137	;# 
   368     008C                     PIE1            equ	140	;# 
   369     008D                     PIE2            equ	141	;# 
   370     008E                     PCON            equ	142	;# 
   371     0091                     SSPCON2         equ	145	;# 
   372     0092                     PR2             equ	146	;# 
   373     0093                     SSPADD          equ	147	;# 
   374     0094                     SSPSTAT         equ	148	;# 
   375     0098                     TXSTA           equ	152	;# 
   376     0099                     SPBRG           equ	153	;# 
   377     009C                     CMCON           equ	156	;# 
   378     009D                     CVRCON          equ	157	;# 
   379     009E                     ADRESL          equ	158	;# 
   380     009F                     ADCON1          equ	159	;# 
   381     010C                     EEDATA          equ	268	;# 
   382     010D                     EEADR           equ	269	;# 
   383     010E                     EEDATH          equ	270	;# 
   384     010F                     EEADRH          equ	271	;# 
   385     018C                     EECON1          equ	396	;# 
   386     018D                     EECON2          equ	397	;# 
   387     0000                     INDF            equ	0	;# 
   388     0001                     TMR0            equ	1	;# 
   389     0002                     PCL             equ	2	;# 
   390     0003                     STATUS          equ	3	;# 
   391     0004                     FSR             equ	4	;# 
   392     0005                     PORTA           equ	5	;# 
   393     0006                     PORTB           equ	6	;# 
   394     0007                     PORTC           equ	7	;# 
   395     0008                     PORTD           equ	8	;# 
   396     0009                     PORTE           equ	9	;# 
   397     000A                     PCLATH          equ	10	;# 
   398     000B                     INTCON          equ	11	;# 
   399     000C                     PIR1            equ	12	;# 
   400     000D                     PIR2            equ	13	;# 
   401     000E                     TMR1            equ	14	;# 
   402     000E                     TMR1L           equ	14	;# 
   403     000F                     TMR1H           equ	15	;# 
   404     0010                     T1CON           equ	16	;# 
   405     0011                     TMR2            equ	17	;# 
   406     0012                     T2CON           equ	18	;# 
   407     0013                     SSPBUF          equ	19	;# 
   408     0014                     SSPCON          equ	20	;# 
   409     0015                     CCPR1           equ	21	;# 
   410     0015                     CCPR1L          equ	21	;# 
   411     0016                     CCPR1H          equ	22	;# 
   412     0017                     CCP1CON         equ	23	;# 
   413     0018                     RCSTA           equ	24	;# 
   414     0019                     TXREG           equ	25	;# 
   415     001A                     RCREG           equ	26	;# 
   416     001B                     CCPR2           equ	27	;# 
   417     001B                     CCPR2L          equ	27	;# 
   418     001C                     CCPR2H          equ	28	;# 
   419     001D                     CCP2CON         equ	29	;# 
   420     001E                     ADRESH          equ	30	;# 
   421     001F                     ADCON0          equ	31	;# 
   422     0081                     OPTION_REG      equ	129	;# 
   423     0085                     TRISA           equ	133	;# 
   424     0086                     TRISB           equ	134	;# 
   425     0087                     TRISC           equ	135	;# 
   426     0088                     TRISD           equ	136	;# 
   427     0089                     TRISE           equ	137	;# 
   428     008C                     PIE1            equ	140	;# 
   429     008D                     PIE2            equ	141	;# 
   430     008E                     PCON            equ	142	;# 
   431     0091                     SSPCON2         equ	145	;# 
   432     0092                     PR2             equ	146	;# 
   433     0093                     SSPADD          equ	147	;# 
   434     0094                     SSPSTAT         equ	148	;# 
   435     0098                     TXSTA           equ	152	;# 
   436     0099                     SPBRG           equ	153	;# 
   437     009C                     CMCON           equ	156	;# 
   438     009D                     CVRCON          equ	157	;# 
   439     009E                     ADRESL          equ	158	;# 
   440     009F                     ADCON1          equ	159	;# 
   441     010C                     EEDATA          equ	268	;# 
   442     010D                     EEADR           equ	269	;# 
   443     010E                     EEDATH          equ	270	;# 
   444     010F                     EEADRH          equ	271	;# 
   445     018C                     EECON1          equ	396	;# 
   446     018D                     EECON2          equ	397	;# 
   447     0000                     INDF            equ	0	;# 
   448     0001                     TMR0            equ	1	;# 
   449     0002                     PCL             equ	2	;# 
   450     0003                     STATUS          equ	3	;# 
   451     0004                     FSR             equ	4	;# 
   452     0005                     PORTA           equ	5	;# 
   453     0006                     PORTB           equ	6	;# 
   454     0007                     PORTC           equ	7	;# 
   455     0008                     PORTD           equ	8	;# 
   456     0009                     PORTE           equ	9	;# 
   457     000A                     PCLATH          equ	10	;# 
   458     000B                     INTCON          equ	11	;# 
   459     000C                     PIR1            equ	12	;# 
   460     000D                     PIR2            equ	13	;# 
   461     000E                     TMR1            equ	14	;# 
   462     000E                     TMR1L           equ	14	;# 
   463     000F                     TMR1H           equ	15	;# 
   464     0010                     T1CON           equ	16	;# 
   465     0011                     TMR2            equ	17	;# 
   466     0012                     T2CON           equ	18	;# 
   467     0013                     SSPBUF          equ	19	;# 
   468     0014                     SSPCON          equ	20	;# 
   469     0015                     CCPR1           equ	21	;# 
   470     0015                     CCPR1L          equ	21	;# 
   471     0016                     CCPR1H          equ	22	;# 
   472     0017                     CCP1CON         equ	23	;# 
   473     0018                     RCSTA           equ	24	;# 
   474     0019                     TXREG           equ	25	;# 
   475     001A                     RCREG           equ	26	;# 
   476     001B                     CCPR2           equ	27	;# 
   477     001B                     CCPR2L          equ	27	;# 
   478     001C                     CCPR2H          equ	28	;# 
   479     001D                     CCP2CON         equ	29	;# 
   480     001E                     ADRESH          equ	30	;# 
   481     001F                     ADCON0          equ	31	;# 
   482     0081                     OPTION_REG      equ	129	;# 
   483     0085                     TRISA           equ	133	;# 
   484     0086                     TRISB           equ	134	;# 
   485     0087                     TRISC           equ	135	;# 
   486     0088                     TRISD           equ	136	;# 
   487     0089                     TRISE           equ	137	;# 
   488     008C                     PIE1            equ	140	;# 
   489     008D                     PIE2            equ	141	;# 
   490     008E                     PCON            equ	142	;# 
   491     0091                     SSPCON2         equ	145	;# 
   492     0092                     PR2             equ	146	;# 
   493     0093                     SSPADD          equ	147	;# 
   494     0094                     SSPSTAT         equ	148	;# 
   495     0098                     TXSTA           equ	152	;# 
   496     0099                     SPBRG           equ	153	;# 
   497     009C                     CMCON           equ	156	;# 
   498     009D                     CVRCON          equ	157	;# 
   499     009E                     ADRESL          equ	158	;# 
   500     009F                     ADCON1          equ	159	;# 
   501     010C                     EEDATA          equ	268	;# 
   502     010D                     EEADR           equ	269	;# 
   503     010E                     EEDATH          equ	270	;# 
   504     010F                     EEADRH          equ	271	;# 
   505     018C                     EECON1          equ	396	;# 
   506     018D                     EECON2          equ	397	;# 
   507                           
   508                           	psect	idataCOMMON
   509     07FC                     __pidataCOMMON:
   510                           
   511                           ;initializer for read_matrix_keypad@once
   512     07FC  3401               	retlw	1
   513                           
   514                           	psect	idataBANK0
   515     07FA                     __pidataBANK0:
   516                           
   517                           ;initializer for _reset_flag
   518     07FA  34FF               	retlw	255
   519                           
   520                           ;initializer for _screen_flag
   521     07FB  3410               	retlw	16
   522     0008                     _PORTD          set	8
   523     0061                     _TMR2IF         set	97
   524     0032                     _RB2            set	50
   525     0031                     _RB1            set	49
   526     0030                     _RB0            set	48
   527     0040                     _RD0            set	64
   528     0041                     _RD1            set	65
   529     0042                     _RD2            set	66
   530     0043                     _RD3            set	67
   531     003A                     _RC2            set	58
   532     0092                     _TMR2ON         set	146
   533     005F                     _GIE            set	95
   534     005E                     _PEIE           set	94
   535     0049                     _RE1            set	73
   536     004A                     _RE2            set	74
   537     0092                     _PR2            set	146
   538     0086                     _TRISB          set	134
   539     0088                     _TRISD          set	136
   540     0461                     _TMR2IE         set	1121
   541     040F                     _nRBPU          set	1039
   542     043A                     _TRISC2         set	1082
   543     0449                     _TRISE1         set	1097
   544     044A                     _TRISE2         set	1098
   545                           
   546                           	psect	strings
   547     0800                     __pstrings:
   548     0800                     stringtab:
   549     0800                     __stringtab:
   550                           
   551                           ;	String table - string pointers are 2 bytes each
   552     0800  1BFF               	btfsc	btemp+1,7
   553     0801  280A               	ljmp	stringcode
   554     0802  1383               	bcf	3,7
   555     0803  187F               	btfsc	btemp+1,0
   556     0804  1783               	bsf	3,7
   557     0805  0800               	movf	0,w
   558     0806  0A84               	incf	4,f
   559     0807  1903               	skipnz
   560     0808  0AFF               	incf	btemp+1,f
   561     0809  0008               	return
   562     080A                     stringcode:
   563     080A  087F               	movf	btemp+1,w
   564     080B  397F               	andlw	127
   565     080C  008A               	movwf	10
   566     080D  0804               	movf	4,w
   567     080E  0A84               	incf	4,f
   568     080F  1903               	skipnz
   569     0810  0AFF               	incf	btemp+1,f
   570     0811  0082               	movwf	2
   571     0812                     __stringbase:
   572     0812                     __end_of__stringtab:
   573                           
   574                           	psect	stringtext
   575     0400                     __pstringtext:
   576     0400                     STR_8:
   577     0400  3453               	retlw	83	;'S'
   578     0401  3445               	retlw	69	;'E'
   579     0402  3454               	retlw	84	;'T'
   580     0403  3420               	retlw	32	;' '
   581     0404  3454               	retlw	84	;'T'
   582     0405  3449               	retlw	73	;'I'
   583     0406  344D               	retlw	77	;'M'
   584     0407  3445               	retlw	69	;'E'
   585     0408  3420               	retlw	32	;' '
   586     0409  3428               	retlw	40	;'('
   587     040A  344D               	retlw	77	;'M'
   588     040B  344D               	retlw	77	;'M'
   589     040C  343A               	retlw	58	;':'
   590     040D  3453               	retlw	83	;'S'
   591     040E  3453               	retlw	83	;'S'
   592     040F  3429               	retlw	41	;')'
   593     0410  3400               	retlw	0
   594     0411                     STR_10:
   595     0411  342A               	retlw	42	;'*'
   596     0412  343A               	retlw	58	;':'
   597     0413  3443               	retlw	67	;'C'
   598     0414  344C               	retlw	76	;'L'
   599     0415  3445               	retlw	69	;'E'
   600     0416  3441               	retlw	65	;'A'
   601     0417  3452               	retlw	82	;'R'
   602     0418  3420               	retlw	32	;' '
   603     0419  3420               	retlw	32	;' '
   604     041A  3423               	retlw	35	;'#'
   605     041B  343A               	retlw	58	;':'
   606     041C  3453               	retlw	83	;'S'
   607     041D  3454               	retlw	84	;'T'
   608     041E  3441               	retlw	65	;'A'
   609     041F  3452               	retlw	82	;'R'
   610     0420  3454               	retlw	84	;'T'
   611     0421  3400               	retlw	0
   612     0422                     STR_13:
   613     0422  342A               	retlw	42	;'*'
   614     0423  343A               	retlw	58	;':'
   615     0424  3443               	retlw	67	;'C'
   616     0425  344C               	retlw	76	;'L'
   617     0426  3445               	retlw	69	;'E'
   618     0427  3441               	retlw	65	;'A'
   619     0428  3452               	retlw	82	;'R'
   620     0429  3420               	retlw	32	;' '
   621     042A  3423               	retlw	35	;'#'
   622     042B  343A               	retlw	58	;':'
   623     042C  3445               	retlw	69	;'E'
   624     042D  344E               	retlw	78	;'N'
   625     042E  3454               	retlw	84	;'T'
   626     042F  3445               	retlw	69	;'E'
   627     0430  3452               	retlw	82	;'R'
   628     0431  3400               	retlw	0
   629     0432                     STR_19:
   630     0432  3445               	retlw	69	;'E'
   631     0433  346E               	retlw	110	;'n'
   632     0434  346A               	retlw	106	;'j'
   633     0435  346F               	retlw	111	;'o'
   634     0436  3479               	retlw	121	;'y'
   635     0437  3420               	retlw	32	;' '
   636     0438  3479               	retlw	121	;'y'
   637     0439  346F               	retlw	111	;'o'
   638     043A  3475               	retlw	117	;'u'
   639     043B  3472               	retlw	114	;'r'
   640     043C  3420               	retlw	32	;' '
   641     043D  344D               	retlw	77	;'M'
   642     043E  3465               	retlw	101	;'e'
   643     043F  3461               	retlw	97	;'a'
   644     0440  346C               	retlw	108	;'l'
   645     0441  3400               	retlw	0
   646     0442                     STR_15:
   647     0442  3434               	retlw	52	;'4'
   648     0443  342E               	retlw	46	;'.'
   649     0444  3453               	retlw	83	;'S'
   650     0445  3454               	retlw	84	;'T'
   651     0446  3441               	retlw	65	;'A'
   652     0447  3452               	retlw	82	;'R'
   653     0448  3454               	retlw	84	;'T'
   654     0449  342F               	retlw	47	;'/'
   655     044A  3452               	retlw	82	;'R'
   656     044B  3445               	retlw	69	;'E'
   657     044C  3453               	retlw	83	;'S'
   658     044D  3455               	retlw	85	;'U'
   659     044E  344D               	retlw	77	;'M'
   660     044F  3445               	retlw	69	;'E'
   661     0450  3400               	retlw	0
   662     0451                     STR_3:
   663     0451  344D               	retlw	77	;'M'
   664     0452  3469               	retlw	105	;'i'
   665     0453  3463               	retlw	99	;'c'
   666     0454  3472               	retlw	114	;'r'
   667     0455  346F               	retlw	111	;'o'
   668     0456  3477               	retlw	119	;'w'
   669     0457  3461               	retlw	97	;'a'
   670     0458  3476               	retlw	118	;'v'
   671     0459  3465               	retlw	101	;'e'
   672     045A  3420               	retlw	32	;' '
   673     045B  344F               	retlw	79	;'O'
   674     045C  3476               	retlw	118	;'v'
   675     045D  3465               	retlw	101	;'e'
   676     045E  346E               	retlw	110	;'n'
   677     045F  3400               	retlw	0
   678     0460                     STR_11:
   679     0460  3453               	retlw	83	;'S'
   680     0461  3445               	retlw	69	;'E'
   681     0462  3454               	retlw	84	;'T'
   682     0463  3420               	retlw	32	;' '
   683     0464  3454               	retlw	84	;'T'
   684     0465  3445               	retlw	69	;'E'
   685     0466  344D               	retlw	77	;'M'
   686     0467  3450               	retlw	80	;'P'
   687     0468  3420               	retlw	32	;' '
   688     0469  343C               	retlw	60	;'<'
   689     046A  342A               	retlw	42	;'*'
   690     046B  3443               	retlw	67	;'C'
   691     046C  343E               	retlw	62	;'>'
   692     046D  3400               	retlw	0
   693     046E                     STR_6:
   694     046E  3433               	retlw	51	;'3'
   695     046F  342E               	retlw	46	;'.'
   696     0470  3420               	retlw	32	;' '
   697     0471  3443               	retlw	67	;'C'
   698     0472  346F               	retlw	111	;'o'
   699     0473  346E               	retlw	110	;'n'
   700     0474  3476               	retlw	118	;'v'
   701     0475  3465               	retlw	101	;'e'
   702     0476  3463               	retlw	99	;'c'
   703     0477  3474               	retlw	116	;'t'
   704     0478  3469               	retlw	105	;'i'
   705     0479  346F               	retlw	111	;'o'
   706     047A  346E               	retlw	110	;'n'
   707     047B  3400               	retlw	0
   708     047C                     STR_1:
   709     047C  3450               	retlw	80	;'P'
   710     047D  346F               	retlw	111	;'o'
   711     047E  3477               	retlw	119	;'w'
   712     047F  3465               	retlw	101	;'e'
   713     0480  3472               	retlw	114	;'r'
   714     0481  3420               	retlw	32	;' '
   715     0482  343D               	retlw	61	;'='
   716     0483  3420               	retlw	32	;' '
   717     0484  3439               	retlw	57	;'9'
   718     0485  3430               	retlw	48	;'0'
   719     0486  3430               	retlw	48	;'0'
   720     0487  3457               	retlw	87	;'W'
   721     0488  3400               	retlw	0
   722     0489                     STR_20:
   723     0489  3450               	retlw	80	;'P'
   724     048A  3452               	retlw	82	;'R'
   725     048B  3445               	retlw	69	;'E'
   726     048C  342D               	retlw	45	;'-'
   727     048D  3448               	retlw	72	;'H'
   728     048E  3445               	retlw	69	;'E'
   729     048F  3441               	retlw	65	;'A'
   730     0490  3454               	retlw	84	;'T'
   731     0491  3449               	retlw	73	;'I'
   732     0492  344E               	retlw	78	;'N'
   733     0493  3447               	retlw	71	;'G'
   734     0494  3400               	retlw	0
   735     0495                     STR_2:
   736     0495  3450               	retlw	80	;'P'
   737     0496  346F               	retlw	111	;'o'
   738     0497  3477               	retlw	119	;'w'
   739     0498  3465               	retlw	101	;'e'
   740     0499  3472               	retlw	114	;'r'
   741     049A  3469               	retlw	105	;'i'
   742     049B  346E               	retlw	110	;'n'
   743     049C  3467               	retlw	103	;'g'
   744     049D  3420               	retlw	32	;' '
   745     049E  344F               	retlw	79	;'O'
   746     049F  344E               	retlw	78	;'N'
   747     04A0  3400               	retlw	0
   748     04A1                     STR_18:
   749     04A1  3454               	retlw	84	;'T'
   750     04A2  3449               	retlw	73	;'I'
   751     04A3  344D               	retlw	77	;'M'
   752     04A4  3445               	retlw	69	;'E'
   753     04A5  3420               	retlw	32	;' '
   754     04A6  3455               	retlw	85	;'U'
   755     04A7  3450               	retlw	80	;'P'
   756     04A8  3421               	retlw	33	;'!'
   757     04A9  3421               	retlw	33	;'!'
   758     04AA  3421               	retlw	33	;'!'
   759     04AB  3400               	retlw	0
   760     04AC                     STR_21:
   761     04AC  3454               	retlw	84	;'T'
   762     04AD  3449               	retlw	73	;'I'
   763     04AE  344D               	retlw	77	;'M'
   764     04AF  3445               	retlw	69	;'E'
   765     04B0  3420               	retlw	32	;' '
   766     04B1  3452               	retlw	82	;'R'
   767     04B2  3465               	retlw	101	;'e'
   768     04B3  346D               	retlw	109	;'m'
   769     04B4  3420               	retlw	32	;' '
   770     04B5  343A               	retlw	58	;':'
   771     04B6  3400               	retlw	0
   772     04B7                     STR_5:
   773     04B7  3432               	retlw	50	;'2'
   774     04B8  342E               	retlw	46	;'.'
   775     04B9  3420               	retlw	32	;' '
   776     04BA  3447               	retlw	71	;'G'
   777     04BB  3472               	retlw	114	;'r'
   778     04BC  3469               	retlw	105	;'i'
   779     04BD  346C               	retlw	108	;'l'
   780     04BE  346C               	retlw	108	;'l'
   781     04BF  3400               	retlw	0
   782     04C0                     STR_4:
   783     04C0  3431               	retlw	49	;'1'
   784     04C1  342E               	retlw	46	;'.'
   785     04C2  3420               	retlw	32	;' '
   786     04C3  344D               	retlw	77	;'M'
   787     04C4  3469               	retlw	105	;'i'
   788     04C5  3463               	retlw	99	;'c'
   789     04C6  3472               	retlw	114	;'r'
   790     04C7  346F               	retlw	111	;'o'
   791     04C8  3400               	retlw	0
   792     04C9                     STR_7:
   793     04C9  3434               	retlw	52	;'4'
   794     04CA  342E               	retlw	46	;'.'
   795     04CB  3420               	retlw	32	;' '
   796     04CC  3453               	retlw	83	;'S'
   797     04CD  3474               	retlw	116	;'t'
   798     04CE  3461               	retlw	97	;'a'
   799     04CF  3472               	retlw	114	;'r'
   800     04D0  3474               	retlw	116	;'t'
   801     04D1  3400               	retlw	0
   802     04D2                     STR_14:
   803     04D2  3454               	retlw	84	;'T'
   804     04D3  3449               	retlw	73	;'I'
   805     04D4  344D               	retlw	77	;'M'
   806     04D5  3445               	retlw	69	;'E'
   807     04D6  3420               	retlw	32	;' '
   808     04D7  343D               	retlw	61	;'='
   809     04D8  3420               	retlw	32	;' '
   810     04D9  3400               	retlw	0
   811     04DA                     STR_16:
   812     04DA  3435               	retlw	53	;'5'
   813     04DB  342E               	retlw	46	;'.'
   814     04DC  3450               	retlw	80	;'P'
   815     04DD  3441               	retlw	65	;'A'
   816     04DE  3455               	retlw	85	;'U'
   817     04DF  3453               	retlw	83	;'S'
   818     04E0  3445               	retlw	69	;'E'
   819     04E1  3400               	retlw	0
   820     04E2                     STR_17:
   821     04E2  3436               	retlw	54	;'6'
   822     04E3  342E               	retlw	46	;'.'
   823     04E4  3453               	retlw	83	;'S'
   824     04E5  3454               	retlw	84	;'T'
   825     04E6  344F               	retlw	79	;'O'
   826     04E7  3450               	retlw	80	;'P'
   827     04E8  3400               	retlw	0
   828     04E9                     STR_9:
   829     04E9  3454               	retlw	84	;'T'
   830     04EA  3449               	retlw	73	;'I'
   831     04EB  344D               	retlw	77	;'M'
   832     04EC  3445               	retlw	69	;'E'
   833     04ED  343A               	retlw	58	;':'
   834     04EE  3400               	retlw	0
   835     04EF                     STR_12:
   836     04EF  3454               	retlw	84	;'T'
   837     04F0  3445               	retlw	69	;'E'
   838     04F1  344D               	retlw	77	;'M'
   839     04F2  3450               	retlw	80	;'P'
   840     04F3  343D               	retlw	61	;'='
   841     04F4  3400               	retlw	0
   842                           
   843                           	psect	cinit
   844     000F                     start_initialization:	
   845                           ; #config settings
   846                           
   847     000F                     __initialization:
   848                           
   849                           ; Initialize objects allocated to BANK0
   850     000F  120A  118A  27FA  120A  118A  	fcall	__pidataBANK0	;fetch initializer
   851     0014  00BD               	movwf	__pdataBANK0& (0+127)
   852     0015  120A  118A  27FB  120A  118A  	fcall	__pidataBANK0+1	;fetch initializer
   853     001A  00BE               	movwf	(__pdataBANK0+1)& (0+127)
   854                           
   855                           ; Initialize objects allocated to COMMON
   856     001B  120A  118A  27FC  120A  118A  	fcall	__pidataCOMMON	;fetch initializer
   857     0020  00FB               	movwf	__pdataCOMMON& (0+127)
   858                           
   859                           ; Clear objects allocated to BANK0
   860     0021  01B0               	clrf	__pbssBANK0& (0+127)
   861     0022  01B1               	clrf	(__pbssBANK0+1)& (0+127)
   862     0023  01B2               	clrf	(__pbssBANK0+2)& (0+127)
   863     0024  01B3               	clrf	(__pbssBANK0+3)& (0+127)
   864     0025  01B4               	clrf	(__pbssBANK0+4)& (0+127)
   865     0026  01B5               	clrf	(__pbssBANK0+5)& (0+127)
   866     0027  01B6               	clrf	(__pbssBANK0+6)& (0+127)
   867     0028  01B7               	clrf	(__pbssBANK0+7)& (0+127)
   868     0029  01B8               	clrf	(__pbssBANK0+8)& (0+127)
   869     002A  01B9               	clrf	(__pbssBANK0+9)& (0+127)
   870     002B  01BA               	clrf	(__pbssBANK0+10)& (0+127)
   871     002C  01BB               	clrf	(__pbssBANK0+11)& (0+127)
   872     002D  01BC               	clrf	(__pbssBANK0+12)& (0+127)
   873                           
   874                           ; Clear objects allocated to COMMON
   875     002E  01F9               	clrf	__pbssCOMMON& (0+127)
   876     002F  01FA               	clrf	(__pbssCOMMON+1)& (0+127)
   877     0030                     end_of_initialization:	
   878                           ;End of C runtime variable initialization code
   879                           
   880     0030                     __end_of__initialization:
   881     0030  0183               	clrf	3
   882     0031  120A  118A  299B   	ljmp	_main	;jump to C main() function
   883                           
   884                           	psect	bssCOMMON
   885     0079                     __pbssCOMMON:
   886     0079                     isr@count:
   887     0079                     	ds	2
   888                           
   889                           	psect	dataCOMMON
   890     007B                     __pdataCOMMON:
   891     007B                     read_matrix_keypad@once:
   892     007B                     	ds	1
   893                           
   894                           	psect	bssBANK0
   895     0030                     __pbssBANK0:
   896     0030                     _temp:
   897     0030                     	ds	2
   898     0032                     set_temp@display_blank:
   899     0032                     	ds	1
   900     0033                     set_temp@delay:
   901     0033                     	ds	1
   902     0034                     set_temp@key_count:
   903     0034                     	ds	1
   904     0035                     set_time@display_blank:
   905     0035                     	ds	1
   906     0036                     set_time@delay:
   907     0036                     	ds	1
   908     0037                     set_time@edit_field:
   909     0037                     	ds	1
   910     0038                     set_time@min_digits:
   911     0038                     	ds	1
   912     0039                     set_time@sec_digits:
   913     0039                     	ds	1
   914     003A                     _pre_heat:
   915     003A                     	ds	1
   916     003B                     _min:
   917     003B                     	ds	1
   918     003C                     _sec:
   919     003C                     	ds	1
   920                           
   921                           	psect	dataBANK0
   922     003D                     __pdataBANK0:
   923     003D                     _reset_flag:
   924     003D                     	ds	1
   925     003E                     _screen_flag:
   926     003E                     	ds	1
   927                           
   928                           	psect	cstackCOMMON
   929     0070                     __pcstackCOMMON:
   930     0070                     ?_init_matrix_keypad:
   931     0070                     ?_init_timer2:	
   932                           ; 1 bytes @ 0x0
   933                           
   934     0070                     ?_read_matrix_keypad:	
   935                           ; 1 bytes @ 0x0
   936                           
   937     0070                     ?_display_power_screen:	
   938                           ; 1 bytes @ 0x0
   939                           
   940     0070                     ?_display_modes:	
   941                           ; 1 bytes @ 0x0
   942                           
   943     0070                     ?_display_preheat:	
   944                           ; 1 bytes @ 0x0
   945                           
   946     0070                     ?_display_time:	
   947                           ; 1 bytes @ 0x0
   948                           
   949     0070                     ?_heat_food:	
   950                           ; 1 bytes @ 0x0
   951                           
   952     0070                     ?_init_display_controller:	
   953                           ; 1 bytes @ 0x0
   954                           
   955     0070                     ?_init_clcd:	
   956                           ; 1 bytes @ 0x0
   957                           
   958     0070                     ?_clear_screen:	
   959                           ; 1 bytes @ 0x0
   960                           
   961     0070                     ?_init_config:	
   962                           ; 1 bytes @ 0x0
   963                           
   964     0070                     ?_main:	
   965                           ; 1 bytes @ 0x0
   966                           
   967     0070                     ?_scan_keypad:	
   968                           ; 1 bytes @ 0x0
   969                           
   970     0070                     ?_isr:	
   971                           ; 1 bytes @ 0x0
   972                           
   973     0070                     ??_isr:	
   974                           ; 1 bytes @ 0x0
   975                           
   976                           
   977                           ; 1 bytes @ 0x0
   978     0070                     	ds	2
   979     0072                     ?_clcd_write:
   980     0072                     ?___wmul:	
   981                           ; 1 bytes @ 0x2
   982                           
   983     0072                     ?___awdiv:	
   984                           ; 2 bytes @ 0x2
   985                           
   986     0072                     ?___awmod:	
   987                           ; 2 bytes @ 0x2
   988                           
   989     0072                     ?___lwdiv:	
   990                           ; 2 bytes @ 0x2
   991                           
   992     0072                     clcd_write@mode:	
   993                           ; 2 bytes @ 0x2
   994                           
   995     0072                     scan_keypad@i:	
   996                           ; 1 bytes @ 0x2
   997                           
   998     0072                     ___wmul@multiplier:	
   999                           ; 2 bytes @ 0x2
  1000                           
  1001     0072                     ___awdiv@divisor:	
  1002                           ; 2 bytes @ 0x2
  1003                           
  1004     0072                     ___awmod@divisor:	
  1005                           ; 2 bytes @ 0x2
  1006                           
  1007     0072                     ___lwdiv@divisor:	
  1008                           ; 2 bytes @ 0x2
  1009                           
  1010     0072                     ??_init_matrix_keypad:	
  1011                           ; 2 bytes @ 0x2
  1012                           
  1013     0072                     ??_init_timer2:	
  1014                           ; 1 bytes @ 0x2
  1015                           
  1016     0072                     ??_heat_food:	
  1017                           ; 1 bytes @ 0x2
  1018                           
  1019     0072                     ??_scan_keypad:	
  1020                           ; 1 bytes @ 0x2
  1021                           
  1022                           
  1023                           ; 1 bytes @ 0x2
  1024     0072                     	ds	1
  1025     0073                     ??_clcd_write:
  1026                           
  1027                           ; 1 bytes @ 0x3
  1028     0073                     	ds	1
  1029     0074                     read_matrix_keypad@mode:
  1030     0074                     ___wmul@multiplicand:	
  1031                           ; 1 bytes @ 0x4
  1032                           
  1033     0074                     ___awdiv@dividend:	
  1034                           ; 2 bytes @ 0x4
  1035                           
  1036     0074                     ___awmod@dividend:	
  1037                           ; 2 bytes @ 0x4
  1038                           
  1039     0074                     ___lwdiv@dividend:	
  1040                           ; 2 bytes @ 0x4
  1041                           
  1042     0074                     ??_read_matrix_keypad:	
  1043                           ; 2 bytes @ 0x4
  1044                           
  1045                           
  1046                           ; 1 bytes @ 0x4
  1047     0074                     	ds	1
  1048     0075                     clcd_write@byte:
  1049     0075                     read_matrix_keypad@key:	
  1050                           ; 1 bytes @ 0x5
  1051                           
  1052                           
  1053                           ; 1 bytes @ 0x5
  1054     0075                     	ds	1
  1055     0076                     ?_clcd_print:
  1056     0076                     ___awmod@counter:	
  1057                           ; 1 bytes @ 0x6
  1058                           
  1059     0076                     clcd_print@str:	
  1060                           ; 1 bytes @ 0x6
  1061                           
  1062     0076                     ___wmul@product:	
  1063                           ; 2 bytes @ 0x6
  1064                           
  1065     0076                     ___lwdiv@quotient:	
  1066                           ; 2 bytes @ 0x6
  1067                           
  1068     0076                     ??_init_display_controller:	
  1069                           ; 2 bytes @ 0x6
  1070                           
  1071     0076                     ??_clear_screen:	
  1072                           ; 1 bytes @ 0x6
  1073                           
  1074     0076                     ??___wmul:	
  1075                           ; 1 bytes @ 0x6
  1076                           
  1077     0076                     ??___awdiv:	
  1078                           ; 1 bytes @ 0x6
  1079                           
  1080     0076                     ??___awmod:	
  1081                           ; 1 bytes @ 0x6
  1082                           
  1083     0076                     ??___lwdiv:	
  1084                           ; 1 bytes @ 0x6
  1085                           
  1086                           
  1087                           ; 1 bytes @ 0x6
  1088     0076                     	ds	1
  1089     0077                     ___awmod@sign:
  1090                           
  1091                           ; 1 bytes @ 0x7
  1092     0077                     	ds	1
  1093     0078                     ?___bmul:
  1094     0078                     clcd_print@addr:	
  1095                           ; 1 bytes @ 0x8
  1096                           
  1097     0078                     ___bmul@multiplicand:	
  1098                           ; 1 bytes @ 0x8
  1099                           
  1100     0078                     ___lwdiv@counter:	
  1101                           ; 1 bytes @ 0x8
  1102                           
  1103     0078                     ??_init_clcd:	
  1104                           ; 1 bytes @ 0x8
  1105                           
  1106     0078                     ??_init_config:	
  1107                           ; 1 bytes @ 0x8
  1108                           
  1109                           
  1110                           ; 1 bytes @ 0x8
  1111     0078                     	ds	1
  1112     0079                     ??_display_modes:
  1113     0079                     ??_set_temp:	
  1114                           ; 1 bytes @ 0x9
  1115                           
  1116     0079                     ??_clcd_putch:	
  1117                           ; 1 bytes @ 0x9
  1118                           
  1119     0079                     ??_clcd_print:	
  1120                           ; 1 bytes @ 0x9
  1121                           
  1122     0079                     ??___bmul:	
  1123                           ; 1 bytes @ 0x9
  1124                           
  1125     0079                     ??___lwmod:	
  1126                           ; 1 bytes @ 0x9
  1127                           
  1128                           
  1129                           	psect	cstackBANK0
  1130     0020                     __pcstackBANK0:	
  1131                           ; 1 bytes @ 0x9
  1132                           
  1133     0020                     ?___lwmod:
  1134     0020                     ___bmul@product:	
  1135                           ; 2 bytes @ 0x0
  1136                           
  1137     0020                     ___awdiv@counter:	
  1138                           ; 1 bytes @ 0x0
  1139                           
  1140     0020                     ___lwmod@divisor:	
  1141                           ; 1 bytes @ 0x0
  1142                           
  1143                           
  1144                           ; 2 bytes @ 0x0
  1145     0020                     	ds	1
  1146     0021                     ___bmul@multiplier:
  1147     0021                     ___awdiv@sign:	
  1148                           ; 1 bytes @ 0x1
  1149                           
  1150                           
  1151                           ; 1 bytes @ 0x1
  1152     0021                     	ds	1
  1153     0022                     ___awdiv@quotient:
  1154     0022                     ___lwmod@dividend:	
  1155                           ; 2 bytes @ 0x2
  1156                           
  1157                           
  1158                           ; 2 bytes @ 0x2
  1159     0022                     	ds	2
  1160     0024                     ___lwmod@counter:
  1161                           
  1162                           ; 1 bytes @ 0x4
  1163     0024                     	ds	1
  1164     0025                     ?_clcd_putch:
  1165     0025                     clcd_putch@addr:	
  1166                           ; 1 bytes @ 0x5
  1167                           
  1168                           
  1169                           ; 1 bytes @ 0x5
  1170     0025                     	ds	1
  1171     0026                     clcd_putch@data:
  1172                           
  1173                           ; 1 bytes @ 0x6
  1174     0026                     	ds	1
  1175     0027                     ?_set_time:
  1176     0027                     ?_set_temp:	
  1177                           ; 1 bytes @ 0x7
  1178                           
  1179     0027                     set_time@reset_flag:	
  1180                           ; 1 bytes @ 0x7
  1181                           
  1182     0027                     set_temp@reset_flag:	
  1183                           ; 1 bytes @ 0x7
  1184                           
  1185     0027                     ??_display_power_screen:	
  1186                           ; 1 bytes @ 0x7
  1187                           
  1188     0027                     ??_display_preheat:	
  1189                           ; 1 bytes @ 0x7
  1190                           
  1191     0027                     ??_display_time:	
  1192                           ; 1 bytes @ 0x7
  1193                           
  1194                           
  1195                           ; 1 bytes @ 0x7
  1196     0027                     	ds	1
  1197     0028                     set_temp@key:
  1198     0028                     ??_set_time:	
  1199                           ; 1 bytes @ 0x8
  1200                           
  1201                           
  1202                           ; 1 bytes @ 0x8
  1203     0028                     	ds	2
  1204     002A                     display_power_screen@i:
  1205     002A                     set_time@key:	
  1206                           ; 1 bytes @ 0xA
  1207                           
  1208                           
  1209                           ; 1 bytes @ 0xA
  1210     002A                     	ds	1
  1211     002B                     display_power_screen@i_160:
  1212                           
  1213                           ; 1 bytes @ 0xB
  1214     002B                     	ds	1
  1215     002C                     ??_main:
  1216                           
  1217                           ; 1 bytes @ 0xC
  1218     002C                     	ds	3
  1219     002F                     main@key:
  1220                           
  1221                           ; 1 bytes @ 0xF
  1222     002F                     	ds	1
  1223                           
  1224                           	psect	maintext
  1225     019B                     __pmaintext:	
  1226 ;;
  1227 ;;Main: autosize = 0, tempsize = 3, incstack = 0, save=0
  1228 ;;
  1229 ;; *************** function _main *****************
  1230 ;; Defined at:
  1231 ;;		line 23 in file "main.c"
  1232 ;; Parameters:    Size  Location     Type
  1233 ;;		None
  1234 ;; Auto vars:     Size  Location     Type
  1235 ;;  key             1   15[BANK0 ] unsigned char 
  1236 ;; Return value:  Size  Location     Type
  1237 ;;                  1    wreg      void 
  1238 ;; Registers used:
  1239 ;;		wreg, fsr0l, fsr0h, status,2, status,0, pclath, btemp1, cstack
  1240 ;; Tracked objects:
  1241 ;;		On entry : B00/0
  1242 ;;		On exit  : 0/0
  1243 ;;		Unchanged: 0/0
  1244 ;; Data sizes:     COMMON   BANK0   BANK1   BANK3   BANK2
  1245 ;;      Params:         0       0       0       0       0
  1246 ;;      Locals:         0       1       0       0       0
  1247 ;;      Temps:          0       3       0       0       0
  1248 ;;      Totals:         0       4       0       0       0
  1249 ;;Total ram usage:        4 bytes
  1250 ;; Hardware stack levels required when called: 5
  1251 ;; This function calls:
  1252 ;;		_clcd_print
  1253 ;;		_clear_screen
  1254 ;;		_display_modes
  1255 ;;		_display_power_screen
  1256 ;;		_display_preheat
  1257 ;;		_display_time
  1258 ;;		_heat_food
  1259 ;;		_init_config
  1260 ;;		_read_matrix_keypad
  1261 ;;		_set_temp
  1262 ;;		_set_time
  1263 ;; This function is called by:
  1264 ;;		Startup code after reset
  1265 ;; This function uses a non-reentrant model
  1266 ;;
  1267                           
  1268     019B                     _main:	
  1269                           ;psect for function _main
  1270                           
  1271     019B                     l2717:	
  1272                           ;incstack = 0
  1273                           ; Regs used in _main: [wreg-fsr0h+status,2+status,0+pclath+btemp1+cstack]
  1274                           
  1275                           
  1276                           ;main.c: 25:         {
  1277     019B  120A  158A  25D3  120A  118A  	fcall	_init_config
  1278     01A0                     l2719:
  1279                           
  1280                           ;main.c: 30:              key = 0xFF;;main.c: 31:              screen_flag = 0x30;
  1281     01A0  3001               	movlw	1
  1282     01A1  120A  118A  23D4  120A  118A  	fcall	_read_matrix_keypad
  1283     01A6  1283               	bcf	3,5	;RP0=0, select bank0
  1284     01A7  1303               	bcf	3,6	;RP1=0, select bank0
  1285     01A8  00AF               	movwf	main@key
  1286     01A9                     l2721:
  1287                           
  1288                           ;main.c: 33:              clcd_print("Power = 900W", (0xC0 + 2));
  1289     01A9  3020               	movlw	32
  1290     01AA  063E               	xorwf	_screen_flag,w
  1291     01AB  1D03               	btfss	3,2
  1292     01AC  29AE               	goto	u2881
  1293     01AD  29AF               	goto	u2880
  1294     01AE                     u2881:
  1295     01AE  2A0A               	goto	l2771
  1296     01AF                     u2880:
  1297     01AF                     l2723:
  1298                           
  1299                           ;main.c: 34:              _delay((unsigned long)((3000)*(20000000/4000.0)));;main.c: 35:
      +                                        clear_screen();
  1300     01AF  032F               	decf	main@key,w
  1301     01B0  1D03               	btfss	3,2
  1302     01B1  29B3               	goto	u2891
  1303     01B2  29B4               	goto	u2890
  1304     01B3                     u2891:
  1305     01B3  29E2               	goto	l2741
  1306     01B4                     u2890:
  1307     01B4                     l2725:
  1308                           
  1309                           ;main.c: 36:              reset_flag = 0x31;;main.c: 37:              }
  1310     01B4  01BC               	clrf	_sec
  1311                           
  1312                           ;main.c: 38:             else if (key == 2)
  1313     01B5  01BB               	clrf	_min
  1314     01B6                     l2727:
  1315                           
  1316                           ;main.c: 39:             {
  1317     01B6  30FF               	movlw	255
  1318     01B7  00AF               	movwf	main@key
  1319     01B8                     l2729:
  1320                           
  1321                           ;main.c: 40:              sec = 0;
  1322     01B8  3030               	movlw	48
  1323     01B9  00BE               	movwf	_screen_flag
  1324     01BA                     l2731:
  1325                           
  1326                           ;main.c: 41:              min = 0;
  1327     01BA  120A  158A  25AD  120A  118A  	fcall	_clear_screen
  1328     01BF                     l2733:
  1329                           
  1330                           ;main.c: 42:              key = 0xFF;
  1331     01BF  307C               	movlw	low (STR_1| (0+32768))
  1332     01C0  00F6               	movwf	clcd_print@str
  1333     01C1  3084               	movlw	high (STR_1| (0+32768))
  1334     01C2  00F7               	movwf	clcd_print@str+1
  1335     01C3  30C2               	movlw	194
  1336     01C4  00F8               	movwf	clcd_print@addr
  1337     01C5  120A  158A  262A  120A  118A  	fcall	_clcd_print
  1338     01CA                     l2735:
  1339                           
  1340                           ;main.c: 43:              screen_flag = 0x40;
  1341     01CA  304D               	movlw	77
  1342     01CB  1283               	bcf	3,5	;RP0=0, select bank0
  1343     01CC  1303               	bcf	3,6	;RP1=0, select bank0
  1344     01CD  00AE               	movwf	??_main+2
  1345     01CE  3019               	movlw	25
  1346     01CF  00AD               	movwf	??_main+1
  1347     01D0  304F               	movlw	79
  1348     01D1  00AC               	movwf	??_main
  1349     01D2                     u3007:
  1350     01D2  0BAC               	decfsz	??_main,f
  1351     01D3  29D2               	goto	u3007
  1352     01D4  0BAD               	decfsz	??_main+1,f
  1353     01D5  29D2               	goto	u3007
  1354     01D6  0BAE               	decfsz	??_main+2,f
  1355     01D7  29D2               	goto	u3007
  1356     01D8                     l2737:
  1357                           
  1358                           ;main.c: 44:              clear_screen();
  1359     01D8  120A  158A  25AD  120A  118A  	fcall	_clear_screen
  1360     01DD                     l2739:
  1361                           
  1362                           ;main.c: 45:              reset_flag = 0x31;
  1363     01DD  3031               	movlw	49
  1364     01DE  1283               	bcf	3,5	;RP0=0, select bank0
  1365     01DF  1303               	bcf	3,6	;RP1=0, select bank0
  1366     01E0  00BD               	movwf	_reset_flag
  1367                           
  1368                           ;main.c: 46:             }
  1369     01E1  2A8E               	goto	l2821
  1370     01E2                     l2741:
  1371     01E2  3002               	movlw	2
  1372     01E3  062F               	xorwf	main@key,w
  1373     01E4  1D03               	btfss	3,2
  1374     01E5  29E7               	goto	u2901
  1375     01E6  29E8               	goto	u2900
  1376     01E7                     u2901:
  1377     01E7  29EF               	goto	l2753
  1378     01E8                     u2900:
  1379     01E8                     l2743:
  1380                           
  1381                           ;main.c: 48:             {;main.c: 49:              sec = 0;
  1382     01E8  01BC               	clrf	_sec
  1383                           
  1384                           ;main.c: 50:              min = 0;
  1385     01E9  01BB               	clrf	_min
  1386     01EA                     l2745:
  1387                           
  1388                           ;main.c: 51:              key = 0xFF;
  1389     01EA  30FF               	movlw	255
  1390     01EB  00AF               	movwf	main@key
  1391     01EC                     l2747:
  1392                           
  1393                           ;main.c: 52:              screen_flag = 0x50;
  1394     01EC  3040               	movlw	64
  1395     01ED  00BE               	movwf	_screen_flag
  1396     01EE  29D8               	goto	l2737
  1397     01EF                     l2753:
  1398     01EF  3003               	movlw	3
  1399     01F0  062F               	xorwf	main@key,w
  1400     01F1  1D03               	btfss	3,2
  1401     01F2  29F4               	goto	u2911
  1402     01F3  29F5               	goto	u2910
  1403     01F4                     u2911:
  1404     01F4  29FC               	goto	l2765
  1405     01F5                     u2910:
  1406     01F5                     l2755:
  1407                           
  1408                           ;main.c: 57:             {;main.c: 58:                 screen_flag = 0x60;
  1409     01F5  01BC               	clrf	_sec
  1410                           
  1411                           ;main.c: 59:                 clear_screen();
  1412     01F6  01BB               	clrf	_min
  1413     01F7                     l2757:
  1414                           
  1415                           ;main.c: 60:             }
  1416     01F7  30FF               	movlw	255
  1417     01F8  00AF               	movwf	main@key
  1418     01F9                     l2759:
  1419                           
  1420                           ;main.c: 61:         }
  1421     01F9  3050               	movlw	80
  1422     01FA  00BE               	movwf	_screen_flag
  1423     01FB  29D8               	goto	l2737
  1424     01FC                     l2765:
  1425     01FC  3004               	movlw	4
  1426     01FD  062F               	xorwf	main@key,w
  1427     01FE  1D03               	btfss	3,2
  1428     01FF  2A01               	goto	u2921
  1429     0200  2A02               	goto	u2920
  1430     0201                     u2921:
  1431     0201  2A8E               	goto	l2821
  1432     0202                     u2920:
  1433     0202                     l2767:
  1434                           
  1435                           ;main.c: 66:                 sec += 30;;main.c: 67:                 if (sec > 59)
  1436     0202  3060               	movlw	96
  1437     0203  00BE               	movwf	_screen_flag
  1438     0204                     l2769:
  1439                           
  1440                           ;main.c: 68:                 {
  1441     0204  120A  158A  25AD  120A  118A  	fcall	_clear_screen
  1442     0209  2A8E               	goto	l2821
  1443     020A                     l2771:
  1444     020A  3070               	movlw	112
  1445     020B  063E               	xorwf	_screen_flag,w
  1446     020C  1D03               	btfss	3,2
  1447     020D  2A0F               	goto	u2931
  1448     020E  2A10               	goto	u2930
  1449     020F                     u2931:
  1450     020F  2A35               	goto	l2789
  1451     0210                     u2930:
  1452     0210                     l2773:
  1453                           
  1454                           ;main.c: 72:             };main.c: 73:             else if (key == 5)
  1455     0210  3004               	movlw	4
  1456     0211  062F               	xorwf	main@key,w
  1457     0212  1D03               	btfss	3,2
  1458     0213  2A15               	goto	u2941
  1459     0214  2A16               	goto	u2940
  1460     0215                     u2941:
  1461     0215  2A23               	goto	l2781
  1462     0216                     u2940:
  1463     0216                     l2775:
  1464                           
  1465                           ;main.c: 74:                 screen_flag = 0x80;;main.c: 75:             else if (key ==
      +                           6)
  1466     0216  301E               	movlw	30
  1467     0217  07BC               	addwf	_sec,f
  1468     0218                     l2777:
  1469                           
  1470                           ;main.c: 76:                 screen_flag = 0x90;
  1471     0218  303C               	movlw	60
  1472     0219  023C               	subwf	_sec,w
  1473     021A  1C03               	skipc
  1474     021B  2A1D               	goto	u2951
  1475     021C  2A1E               	goto	u2950
  1476     021D                     u2951:
  1477     021D  2A8E               	goto	l2821
  1478     021E                     u2950:
  1479     021E                     l2779:
  1480                           
  1481                           ;main.c: 77:         };main.c: 78:         else if (screen_flag == 0x80)
  1482     021E  3001               	movlw	1
  1483     021F  07BB               	addwf	_min,f
  1484                           
  1485                           ;main.c: 79:         {
  1486     0220  303C               	movlw	60
  1487     0221  02BC               	subwf	_sec,f
  1488     0222  2A8E               	goto	l2821
  1489     0223                     l2781:
  1490     0223  3005               	movlw	5
  1491     0224  062F               	xorwf	main@key,w
  1492     0225  1D03               	btfss	3,2
  1493     0226  2A28               	goto	u2961
  1494     0227  2A29               	goto	u2960
  1495     0228                     u2961:
  1496     0228  2A2C               	goto	l2785
  1497     0229                     u2960:
  1498     0229                     l2783:
  1499                           
  1500                           ;main.c: 83:                 RC2 = 1;
  1501     0229  3080               	movlw	128
  1502     022A  00BE               	movwf	_screen_flag
  1503     022B  2A8E               	goto	l2821
  1504     022C                     l2785:
  1505     022C  3006               	movlw	6
  1506     022D  062F               	xorwf	main@key,w
  1507     022E  1D03               	btfss	3,2
  1508     022F  2A31               	goto	u2971
  1509     0230  2A32               	goto	u2970
  1510     0231                     u2971:
  1511     0231  2A8E               	goto	l2821
  1512     0232                     u2970:
  1513     0232                     l2787:
  1514                           
  1515                           ;main.c: 85:             }
  1516     0232  3090               	movlw	144
  1517     0233  00BE               	movwf	_screen_flag
  1518     0234  2A8E               	goto	l2821
  1519     0235                     l2789:
  1520     0235  3080               	movlw	128
  1521     0236  063E               	xorwf	_screen_flag,w
  1522     0237  1D03               	btfss	3,2
  1523     0238  2A3A               	goto	u2981
  1524     0239  2A3B               	goto	u2980
  1525     023A                     u2981:
  1526     023A  2A8E               	goto	l2821
  1527     023B                     u2980:
  1528     023B                     l2791:
  1529                           
  1530                           ;main.c: 88:         switch (screen_flag);main.c: 89:         {
  1531     023B  3004               	movlw	4
  1532     023C  062F               	xorwf	main@key,w
  1533     023D  1D03               	btfss	3,2
  1534     023E  2A40               	goto	u2991
  1535     023F  2A41               	goto	u2990
  1536     0240                     u2991:
  1537     0240  2A8E               	goto	l2821
  1538     0241                     u2990:
  1539     0241                     l2793:
  1540                           
  1541                           ;main.c: 90:         case 0x10:;main.c: 91:                             display_power_sc
      +                          reen();
  1542     0241  1512               	bsf	18,2	;volatile
  1543                           
  1544                           ;main.c: 92:                             clear_screen();
  1545     0242  1507               	bsf	7,2	;volatile
  1546                           
  1547                           ;main.c: 93:                             screen_flag = 0x20;
  1548     0243  3070               	movlw	112
  1549     0244  00BE               	movwf	_screen_flag
  1550     0245  2A8E               	goto	l2821
  1551     0246                     l2795:
  1552                           
  1553                           ;main.c: 100:         case 0x30:
  1554     0246  120A  118A  2695  120A  118A  	fcall	_display_power_screen
  1555     024B                     l2797:
  1556                           
  1557                           ;main.c: 101:                             set_time(key, reset_flag);
  1558     024B  120A  158A  25AD  120A  118A  	fcall	_clear_screen
  1559     0250                     l2799:
  1560                           
  1561                           ;main.c: 102:                             break;
  1562     0250  3020               	movlw	32
  1563     0251  1283               	bcf	3,5	;RP0=0, select bank0
  1564     0252  1303               	bcf	3,6	;RP1=0, select bank0
  1565     0253  00BE               	movwf	_screen_flag
  1566                           
  1567                           ;main.c: 103: 
  1568     0254  2AB0               	goto	l111
  1569     0255                     l2801:
  1570                           
  1571                           ;main.c: 106:                             break;
  1572     0255  120A  158A  25FD  120A  118A  	fcall	_display_modes
  1573                           
  1574                           ;main.c: 107: 
  1575     025A  2AB0               	goto	l111
  1576     025B                     l2803:
  1577                           
  1578                           ;main.c: 110:                             break;
  1579     025B  083D               	movf	_reset_flag,w
  1580     025C  00A7               	movwf	set_time@reset_flag
  1581     025D  082F               	movf	main@key,w
  1582     025E  120A  118A  2034  120A  118A  	fcall	_set_time
  1583                           
  1584                           ;main.c: 111: 
  1585     0263  2AB0               	goto	l111
  1586     0264                     l2805:
  1587                           
  1588                           ;main.c: 114:                             break;
  1589     0264  083D               	movf	_reset_flag,w
  1590     0265  00A7               	movwf	set_time@reset_flag
  1591     0266  082F               	movf	main@key,w
  1592     0267  120A  118A  2034  120A  118A  	fcall	_set_time
  1593                           
  1594                           ;main.c: 115: 
  1595     026C  2AB0               	goto	l111
  1596     026D                     l2807:
  1597                           
  1598                           ;main.c: 118:                             break;
  1599     026D  083D               	movf	_reset_flag,w
  1600     026E  00A7               	movwf	set_temp@reset_flag
  1601     026F  082F               	movf	main@key,w
  1602     0270  120A  118A  22B8  120A  118A  	fcall	_set_temp
  1603                           
  1604                           ;main.c: 119: 
  1605     0275  2AB0               	goto	l111
  1606     0276                     l2809:
  1607                           
  1608                           ;main.c: 122:                             break;
  1609     0276  120A  118A  2703  120A  118A  	fcall	_display_preheat
  1610                           
  1611                           ;main.c: 123: 
  1612     027B  2AB0               	goto	l111
  1613     027C                     l2811:
  1614                           
  1615                           ;main.c: 126:                             RC2 = 0;
  1616     027C  120A  118A  24F5  120A  118A  	fcall	_display_time
  1617                           
  1618                           ;main.c: 127:                             break;
  1619     0281  2AB0               	goto	l111
  1620     0282                     l2813:
  1621                           
  1622                           ;main.c: 130:                            TMR2ON = 0;
  1623     0282  120A  158A  2588  120A  118A  	fcall	_heat_food
  1624                           
  1625                           ;main.c: 131:                            RC2 = 0;
  1626     0287  2AB0               	goto	l111
  1627     0288                     l119:	
  1628                           ;main.c: 133:                            screen_flag = 0x20;
  1629                           
  1630                           
  1631                           ;main.c: 134:                            break;
  1632     0288  1112               	bcf	18,2	;volatile
  1633                           
  1634                           ;main.c: 135:         }
  1635     0289  1107               	bcf	7,2	;volatile
  1636                           
  1637                           ;main.c: 136: 
  1638     028A  2AB0               	goto	l111
  1639     028B                     l120:	
  1640                           ;main.c: 138:     }
  1641                           
  1642                           
  1643                           ;main.c: 139: }
  1644     028B  1112               	bcf	18,2	;volatile
  1645     028C  1107               	bcf	7,2	;volatile
  1646     028D  2A4B               	goto	l2797
  1647     028E                     l2821:
  1648     028E  1283               	bcf	3,5	;RP0=0, select bank0
  1649     028F  1303               	bcf	3,6	;RP1=0, select bank0
  1650     0290  083E               	movf	_screen_flag,w
  1651                           
  1652                           ; Switch size 1, requested type "simple"
  1653                           ; Number of cases is 10, Range of values is 16 to 160
  1654                           ; switch strategies available:
  1655                           ; Name         Instructions Cycles
  1656                           ; simple_byte           31    16 (average)
  1657                           ; jumptable            263     9 (fixed)
  1658                           ;	Chosen strategy is simple_byte
  1659     0291  3A10               	xorlw	16	; case 16
  1660     0292  1903               	skipnz
  1661     0293  2A46               	goto	l2795
  1662     0294  3A30               	xorlw	48	; case 32
  1663     0295  1903               	skipnz
  1664     0296  2A55               	goto	l2801
  1665     0297  3A10               	xorlw	16	; case 48
  1666     0298  1903               	skipnz
  1667     0299  2A5B               	goto	l2803
  1668     029A  3A70               	xorlw	112	; case 64
  1669     029B  1903               	skipnz
  1670     029C  2A64               	goto	l2805
  1671     029D  3A10               	xorlw	16	; case 80
  1672     029E  1903               	skipnz
  1673     029F  2A6D               	goto	l2807
  1674     02A0  3A30               	xorlw	48	; case 96
  1675     02A1  1903               	skipnz
  1676     02A2  2A82               	goto	l2813
  1677     02A3  3A10               	xorlw	16	; case 112
  1678     02A4  1903               	skipnz
  1679     02A5  2A7C               	goto	l2811
  1680     02A6  3AF0               	xorlw	240	; case 128
  1681     02A7  1903               	skipnz
  1682     02A8  2A88               	goto	l119
  1683     02A9  3A10               	xorlw	16	; case 144
  1684     02AA  1903               	skipnz
  1685     02AB  2A8B               	goto	l120
  1686     02AC  3A30               	xorlw	48	; case 160
  1687     02AD  1903               	skipnz
  1688     02AE  2A76               	goto	l2809
  1689     02AF  2AB0               	goto	l111
  1690     02B0                     l111:
  1691     02B0  30FF               	movlw	255
  1692     02B1  1283               	bcf	3,5	;RP0=0, select bank0
  1693     02B2  1303               	bcf	3,6	;RP1=0, select bank0
  1694     02B3  00BD               	movwf	_reset_flag
  1695     02B4  29A0               	goto	l2719
  1696     02B5  120A  118A  280C   	ljmp	start
  1697     02B8                     __end_of_main:
  1698                           
  1699                           	psect	text1
  1700     0034                     __ptext1:	
  1701 ;; *************** function _set_time *****************
  1702 ;; Defined at:
  1703 ;;		line 37 in file "micro_oven.c"
  1704 ;; Parameters:    Size  Location     Type
  1705 ;;  key             1    wreg     unsigned char 
  1706 ;;  reset_flag      1    7[BANK0 ] unsigned char 
  1707 ;; Auto vars:     Size  Location     Type
  1708 ;;  key             1   10[BANK0 ] unsigned char 
  1709 ;; Return value:  Size  Location     Type
  1710 ;;                  1    wreg      void 
  1711 ;; Registers used:
  1712 ;;		wreg, fsr0l, fsr0h, status,2, status,0, pclath, btemp1, cstack
  1713 ;; Tracked objects:
  1714 ;;		On entry : 0/0
  1715 ;;		On exit  : 0/0
  1716 ;;		Unchanged: 0/0
  1717 ;; Data sizes:     COMMON   BANK0   BANK1   BANK3   BANK2
  1718 ;;      Params:         0       1       0       0       0
  1719 ;;      Locals:         0       1       0       0       0
  1720 ;;      Temps:          0       2       0       0       0
  1721 ;;      Totals:         0       4       0       0       0
  1722 ;;Total ram usage:        4 bytes
  1723 ;; Hardware stack levels used: 1
  1724 ;; Hardware stack levels required when called: 2
  1725 ;; This function calls:
  1726 ;;		___awdiv
  1727 ;;		___awmod
  1728 ;;		___bmul
  1729 ;;		_clcd_print
  1730 ;;		_clcd_putch
  1731 ;;		_clear_screen
  1732 ;; This function is called by:
  1733 ;;		_main
  1734 ;; This function uses a non-reentrant model
  1735 ;;
  1736                           
  1737     0034                     _set_time:	
  1738                           ;psect for function _set_time
  1739                           
  1740                           
  1741                           ;incstack = 0
  1742                           ; Regs used in _set_time: [wreg-fsr0h+status,2+status,0+pclath+btemp1+cstack]
  1743                           ;set_time@key stored from wreg
  1744     0034  1283               	bcf	3,5	;RP0=0, select bank0
  1745     0035  1303               	bcf	3,6	;RP1=0, select bank0
  1746     0036  00AA               	movwf	set_time@key
  1747     0037                     l2651:
  1748                           
  1749                           ;micro_oven.c: 37: void set_time(unsigned char key, unsigned char reset_flag);micro_oven
      +                          .c: 38: {;micro_oven.c: 39:     static unsigned char sec_digits = 0;;micro_oven.c: 40:  
      +                             static unsigned char min_digits = 0;;micro_oven.c: 41:     static unsigned char edit_
      +                          field = 0;;micro_oven.c: 42:     static unsigned char delay = 0, display_blank = 0;;micr
      +                          o_oven.c: 44:     TMR2ON = 0;
  1750     0037  1112               	bcf	18,2	;volatile
  1751     0038                     l2653:
  1752                           
  1753                           ;micro_oven.c: 47:     if (reset_flag == 0x31)
  1754     0038  3031               	movlw	49
  1755     0039  0627               	xorwf	set_time@reset_flag,w
  1756     003A  1D03               	btfss	3,2
  1757     003B  283D               	goto	u2741
  1758     003C  283E               	goto	u2740
  1759     003D                     u2741:
  1760     003D  2843               	goto	l2657
  1761     003E                     u2740:
  1762     003E                     l2655:
  1763                           
  1764                           ;micro_oven.c: 48:     {;micro_oven.c: 49:         sec = 0;
  1765     003E  01BC               	clrf	_sec
  1766                           
  1767                           ;micro_oven.c: 50:         min = 0;
  1768     003F  01BB               	clrf	_min
  1769                           
  1770                           ;micro_oven.c: 51:         sec_digits = 0;
  1771     0040  01B9               	clrf	set_time@sec_digits
  1772                           
  1773                           ;micro_oven.c: 52:         min_digits = 0;
  1774     0041  01B8               	clrf	set_time@min_digits
  1775                           
  1776                           ;micro_oven.c: 53:         edit_field = 0;
  1777     0042  01B7               	clrf	set_time@edit_field
  1778     0043                     l2657:
  1779                           
  1780                           ;micro_oven.c: 57:     clcd_print("SET TIME (MM:SS)", (0x80 + 0));
  1781     0043  3000               	movlw	low (STR_8| (0+32768))
  1782     0044  00F6               	movwf	clcd_print@str
  1783     0045  3084               	movlw	high (STR_8| (0+32768))
  1784     0046  00F7               	movwf	clcd_print@str+1
  1785     0047  3080               	movlw	128
  1786     0048  00F8               	movwf	clcd_print@addr
  1787     0049  120A  158A  262A  120A  118A  	fcall	_clcd_print
  1788     004E                     l2659:
  1789                           
  1790                           ;micro_oven.c: 58:     clcd_print("TIME:", (0xC0 + 0));
  1791     004E  30E9               	movlw	low (STR_9| (0+32768))
  1792     004F  00F6               	movwf	clcd_print@str
  1793     0050  3084               	movlw	high (STR_9| (0+32768))
  1794     0051  00F7               	movwf	clcd_print@str+1
  1795     0052  30C0               	movlw	192
  1796     0053  00F8               	movwf	clcd_print@addr
  1797     0054  120A  158A  262A  120A  118A  	fcall	_clcd_print
  1798     0059                     l2661:
  1799                           
  1800                           ;micro_oven.c: 59:     clcd_putch(':', (0xC0 + 7));
  1801     0059  30C7               	movlw	199
  1802     005A  1283               	bcf	3,5	;RP0=0, select bank0
  1803     005B  1303               	bcf	3,6	;RP1=0, select bank0
  1804     005C  00A5               	movwf	clcd_putch@addr
  1805     005D  303A               	movlw	58
  1806     005E  120A  158A  25BE  120A  118A  	fcall	_clcd_putch
  1807     0063                     l2663:
  1808                           
  1809                           ;micro_oven.c: 60:     clcd_print("*:CLEAR  #:START", (0xD0 + 0));
  1810     0063  3011               	movlw	low (STR_10| (0+32768))
  1811     0064  00F6               	movwf	clcd_print@str
  1812     0065  3084               	movlw	high (STR_10| (0+32768))
  1813     0066  00F7               	movwf	clcd_print@str+1
  1814     0067  30D0               	movlw	208
  1815     0068  00F8               	movwf	clcd_print@addr
  1816     0069  120A  158A  262A  120A  118A  	fcall	_clcd_print
  1817     006E                     l2665:
  1818                           
  1819                           ;micro_oven.c: 63:     if (key != 0xFF)
  1820     006E  1283               	bcf	3,5	;RP0=0, select bank0
  1821     006F  1303               	bcf	3,6	;RP1=0, select bank0
  1822     0070  0A2A               	incf	set_time@key,w
  1823     0071  1903               	btfsc	3,2
  1824     0072  2874               	goto	u2751
  1825     0073  2875               	goto	u2750
  1826     0074                     u2751:
  1827     0074  28EF               	goto	l2701
  1828     0075                     u2750:
  1829     0075                     l2667:
  1830                           
  1831                           ;micro_oven.c: 64:     {;micro_oven.c: 66:         if (key <= 9)
  1832     0075  300A               	movlw	10
  1833     0076  022A               	subwf	set_time@key,w
  1834     0077  1803               	skipnc
  1835     0078  287A               	goto	u2761
  1836     0079  287B               	goto	u2760
  1837     007A                     u2761:
  1838     007A  28D1               	goto	l2687
  1839     007B                     u2760:
  1840     007B                     l2669:
  1841                           
  1842                           ;micro_oven.c: 67:         {;micro_oven.c: 68:             if (edit_field == 0)
  1843     007B  0837               	movf	set_time@edit_field,w
  1844     007C  1D03               	btfss	3,2
  1845     007D  287F               	goto	u2771
  1846     007E  2880               	goto	u2770
  1847     007F                     u2771:
  1848     007F  28A7               	goto	l2679
  1849     0080                     u2770:
  1850     0080                     l2671:
  1851                           
  1852                           ;micro_oven.c: 69:             {;micro_oven.c: 70:                 sec = (sec % 10) * 10
      +                           + key;
  1853     0080  300A               	movlw	10
  1854     0081  00F8               	movwf	___bmul@multiplicand
  1855     0082  083C               	movf	_sec,w
  1856     0083  00A8               	movwf	??_set_time
  1857     0084  01A9               	clrf	??_set_time+1
  1858     0085  0828               	movf	??_set_time,w
  1859     0086  00F4               	movwf	___awmod@dividend
  1860     0087  0829               	movf	??_set_time+1,w
  1861     0088  00F5               	movwf	___awmod@dividend+1
  1862     0089  300A               	movlw	10
  1863     008A  00F2               	movwf	___awmod@divisor
  1864     008B  3000               	movlw	0
  1865     008C  00F3               	movwf	___awmod@divisor+1
  1866     008D  120A  158A  2746  120A  118A  	fcall	___awmod
  1867     0092  0872               	movf	?___awmod,w
  1868     0093  120A  158A  25E8  120A  118A  	fcall	___bmul
  1869     0098  1283               	bcf	3,5	;RP0=0, select bank0
  1870     0099  1303               	bcf	3,6	;RP1=0, select bank0
  1871     009A  072A               	addwf	set_time@key,w
  1872     009B  00BC               	movwf	_sec
  1873     009C                     l2673:
  1874                           
  1875                           ;micro_oven.c: 71:                 sec_digits++;
  1876     009C  3001               	movlw	1
  1877     009D  07B9               	addwf	set_time@sec_digits,f
  1878     009E                     l2675:
  1879                           
  1880                           ;micro_oven.c: 73:                 if (sec_digits == 2)
  1881     009E  3002               	movlw	2
  1882     009F  0639               	xorwf	set_time@sec_digits,w
  1883     00A0  1D03               	btfss	3,2
  1884     00A1  28A3               	goto	u2781
  1885     00A2  28A4               	goto	u2780
  1886     00A3                     u2781:
  1887     00A3  28EF               	goto	l2701
  1888     00A4                     u2780:
  1889     00A4                     l2677:
  1890                           
  1891                           ;micro_oven.c: 74:                     edit_field = 1;
  1892     00A4  3001               	movlw	1
  1893     00A5  00B7               	movwf	set_time@edit_field
  1894     00A6  28EF               	goto	l2701
  1895     00A7                     l2679:
  1896     00A7  0337               	decf	set_time@edit_field,w
  1897     00A8  1D03               	btfss	3,2
  1898     00A9  28AB               	goto	u2791
  1899     00AA  28AC               	goto	u2790
  1900     00AB                     u2791:
  1901     00AB  28EF               	goto	l2701
  1902     00AC                     u2790:
  1903     00AC                     l2681:
  1904                           
  1905                           ;micro_oven.c: 77:             {;micro_oven.c: 78:                 if (min_digits < 2)
  1906     00AC  3002               	movlw	2
  1907     00AD  0238               	subwf	set_time@min_digits,w
  1908     00AE  1803               	skipnc
  1909     00AF  28B1               	goto	u2801
  1910     00B0  28B2               	goto	u2800
  1911     00B1                     u2801:
  1912     00B1  28EF               	goto	l2701
  1913     00B2                     u2800:
  1914     00B2                     l2683:
  1915                           
  1916                           ;micro_oven.c: 79:                 {;micro_oven.c: 80:                     min = (min % 
      +                          10) * 10 + key;
  1917     00B2  300A               	movlw	10
  1918     00B3  00F8               	movwf	___bmul@multiplicand
  1919     00B4  083B               	movf	_min,w
  1920     00B5  00A8               	movwf	??_set_time
  1921     00B6  01A9               	clrf	??_set_time+1
  1922     00B7  0828               	movf	??_set_time,w
  1923     00B8  00F4               	movwf	___awmod@dividend
  1924     00B9  0829               	movf	??_set_time+1,w
  1925     00BA  00F5               	movwf	___awmod@dividend+1
  1926     00BB  300A               	movlw	10
  1927     00BC  00F2               	movwf	___awmod@divisor
  1928     00BD  3000               	movlw	0
  1929     00BE  00F3               	movwf	___awmod@divisor+1
  1930     00BF  120A  158A  2746  120A  118A  	fcall	___awmod
  1931     00C4  0872               	movf	?___awmod,w
  1932     00C5  120A  158A  25E8  120A  118A  	fcall	___bmul
  1933     00CA  1283               	bcf	3,5	;RP0=0, select bank0
  1934     00CB  1303               	bcf	3,6	;RP1=0, select bank0
  1935     00CC  072A               	addwf	set_time@key,w
  1936     00CD  00BB               	movwf	_min
  1937     00CE                     l2685:
  1938                           
  1939                           ;micro_oven.c: 81:                     min_digits++;
  1940     00CE  3001               	movlw	1
  1941     00CF  07B8               	addwf	set_time@min_digits,f
  1942     00D0  28EF               	goto	l2701
  1943     00D1                     l2687:
  1944     00D1  302A               	movlw	42
  1945     00D2  062A               	xorwf	set_time@key,w
  1946     00D3  1D03               	btfss	3,2
  1947     00D4  28D6               	goto	u2811
  1948     00D5  28D7               	goto	u2810
  1949     00D6                     u2811:
  1950     00D6  28DD               	goto	l2691
  1951     00D7                     u2810:
  1952     00D7                     l2689:
  1953                           
  1954                           ;micro_oven.c: 88:         {;micro_oven.c: 89:             sec = 0;
  1955     00D7  01BC               	clrf	_sec
  1956                           
  1957                           ;micro_oven.c: 90:             min = 0;
  1958     00D8  01BB               	clrf	_min
  1959                           
  1960                           ;micro_oven.c: 91:             sec_digits = 0;
  1961     00D9  01B9               	clrf	set_time@sec_digits
  1962                           
  1963                           ;micro_oven.c: 92:             min_digits = 0;
  1964     00DA  01B8               	clrf	set_time@min_digits
  1965                           
  1966                           ;micro_oven.c: 93:             edit_field = 0;
  1967     00DB  01B7               	clrf	set_time@edit_field
  1968                           
  1969                           ;micro_oven.c: 94:         }
  1970     00DC  28EF               	goto	l2701
  1971     00DD                     l2691:
  1972     00DD  3023               	movlw	35
  1973     00DE  062A               	xorwf	set_time@key,w
  1974     00DF  1D03               	btfss	3,2
  1975     00E0  28E2               	goto	u2821
  1976     00E1  28E3               	goto	u2820
  1977     00E2                     u2821:
  1978     00E2  28EF               	goto	l2701
  1979     00E3                     u2820:
  1980     00E3                     l2693:
  1981                           
  1982                           ;micro_oven.c: 98:         {;micro_oven.c: 99:             RC2 = 1;
  1983     00E3  1507               	bsf	7,2	;volatile
  1984                           
  1985                           ;micro_oven.c: 100:             TMR2ON = 1;
  1986     00E4  1512               	bsf	18,2	;volatile
  1987     00E5                     l2695:
  1988                           
  1989                           ;micro_oven.c: 101:             clear_screen();
  1990     00E5  120A  158A  25AD  120A  118A  	fcall	_clear_screen
  1991     00EA                     l2697:
  1992                           
  1993                           ;micro_oven.c: 102:             screen_flag = 0x70;
  1994     00EA  3070               	movlw	112
  1995     00EB  1283               	bcf	3,5	;RP0=0, select bank0
  1996     00EC  1303               	bcf	3,6	;RP1=0, select bank0
  1997     00ED  00BE               	movwf	_screen_flag
  1998     00EE  299A               	goto	l258
  1999     00EF                     l2701:
  2000                           
  2001                           ;micro_oven.c: 108:     if (++delay == 10)
  2002     00EF  3001               	movlw	1
  2003     00F0  07B6               	addwf	set_time@delay,f
  2004     00F1  300A               	movlw	10
  2005     00F2  0636               	xorwf	set_time@delay,w
  2006     00F3  1D03               	btfss	3,2
  2007     00F4  28F6               	goto	u2831
  2008     00F5  28F7               	goto	u2830
  2009     00F6                     u2831:
  2010     00F6  2900               	goto	l2707
  2011     00F7                     u2830:
  2012     00F7                     l2703:
  2013                           
  2014                           ;micro_oven.c: 109:     {;micro_oven.c: 110:         delay = 0;
  2015     00F7  01B6               	clrf	set_time@delay
  2016     00F8                     l2705:
  2017                           
  2018                           ;micro_oven.c: 111:         display_blank = !display_blank;
  2019     00F8  0835               	movf	set_time@display_blank,w
  2020     00F9  1903               	btfsc	3,2
  2021     00FA  28FC               	goto	u2841
  2022     00FB  28FE               	goto	u2840
  2023     00FC                     u2841:
  2024     00FC  3001               	movlw	1
  2025     00FD  28FF               	goto	u2850
  2026     00FE                     u2840:
  2027     00FE  3000               	movlw	0
  2028     00FF                     u2850:
  2029     00FF  00B5               	movwf	set_time@display_blank
  2030     0100                     l2707:
  2031                           
  2032                           ;micro_oven.c: 115:     if (display_blank)
  2033     0100  0835               	movf	set_time@display_blank,w
  2034     0101  1903               	btfsc	3,2
  2035     0102  2904               	goto	u2861
  2036     0103  2905               	goto	u2860
  2037     0104                     u2861:
  2038     0104  2930               	goto	l2715
  2039     0105                     u2860:
  2040     0105                     l2709:
  2041                           
  2042                           ;micro_oven.c: 116:     {;micro_oven.c: 117:         if (edit_field == 0)
  2043     0105  0837               	movf	set_time@edit_field,w
  2044     0106  1D03               	btfss	3,2
  2045     0107  2909               	goto	u2871
  2046     0108  290A               	goto	u2870
  2047     0109                     u2871:
  2048     0109  291D               	goto	l2713
  2049     010A                     u2870:
  2050     010A                     l2711:
  2051                           
  2052                           ;micro_oven.c: 118:         {;micro_oven.c: 119:             clcd_putch(' ', (0xC0 + 8))
      +                          ;
  2053     010A  30C8               	movlw	200
  2054     010B  00A5               	movwf	clcd_putch@addr
  2055     010C  3020               	movlw	32
  2056     010D  120A  158A  25BE  120A  118A  	fcall	_clcd_putch
  2057                           
  2058                           ;micro_oven.c: 120:             clcd_putch(' ', (0xC0 + 9));
  2059     0112  30C9               	movlw	201
  2060     0113  1283               	bcf	3,5	;RP0=0, select bank0
  2061     0114  1303               	bcf	3,6	;RP1=0, select bank0
  2062     0115  00A5               	movwf	clcd_putch@addr
  2063     0116  3020               	movlw	32
  2064     0117  120A  158A  25BE  120A  118A  	fcall	_clcd_putch
  2065                           
  2066                           ;micro_oven.c: 121:         }
  2067     011C  299A               	goto	l258
  2068     011D                     l2713:
  2069                           
  2070                           ;micro_oven.c: 123:         {;micro_oven.c: 124:             clcd_putch(' ', (0xC0 + 5))
      +                          ;
  2071     011D  30C5               	movlw	197
  2072     011E  00A5               	movwf	clcd_putch@addr
  2073     011F  3020               	movlw	32
  2074     0120  120A  158A  25BE  120A  118A  	fcall	_clcd_putch
  2075                           
  2076                           ;micro_oven.c: 125:             clcd_putch(' ', (0xC0 + 6));
  2077     0125  30C6               	movlw	198
  2078     0126  1283               	bcf	3,5	;RP0=0, select bank0
  2079     0127  1303               	bcf	3,6	;RP1=0, select bank0
  2080     0128  00A5               	movwf	clcd_putch@addr
  2081     0129  3020               	movlw	32
  2082     012A  120A  158A  25BE  120A  118A  	fcall	_clcd_putch
  2083     012F  299A               	goto	l258
  2084     0130                     l2715:
  2085                           
  2086                           ;micro_oven.c: 129:     {;micro_oven.c: 130:         clcd_putch(min / 10 + '0', (0xC0 + 
      +                          5));
  2087     0130  30C5               	movlw	197
  2088     0131  00A5               	movwf	clcd_putch@addr
  2089     0132  300A               	movlw	10
  2090     0133  00F2               	movwf	___awdiv@divisor
  2091     0134  3000               	movlw	0
  2092     0135  00F3               	movwf	___awdiv@divisor+1
  2093     0136  083B               	movf	_min,w
  2094     0137  00A8               	movwf	??_set_time
  2095     0138  01A9               	clrf	??_set_time+1
  2096     0139  0828               	movf	??_set_time,w
  2097     013A  00F4               	movwf	___awdiv@dividend
  2098     013B  0829               	movf	??_set_time+1,w
  2099     013C  00F5               	movwf	___awdiv@dividend+1
  2100     013D  120A  118A  2770  120A  118A  	fcall	___awdiv
  2101     0142  0872               	movf	?___awdiv,w
  2102     0143  3E30               	addlw	48
  2103     0144  120A  158A  25BE  120A  118A  	fcall	_clcd_putch
  2104                           
  2105                           ;micro_oven.c: 131:         clcd_putch(min % 10 + '0', (0xC0 + 6));
  2106     0149  30C6               	movlw	198
  2107     014A  1283               	bcf	3,5	;RP0=0, select bank0
  2108     014B  1303               	bcf	3,6	;RP1=0, select bank0
  2109     014C  00A5               	movwf	clcd_putch@addr
  2110     014D  300A               	movlw	10
  2111     014E  00F2               	movwf	___awmod@divisor
  2112     014F  3000               	movlw	0
  2113     0150  00F3               	movwf	___awmod@divisor+1
  2114     0151  083B               	movf	_min,w
  2115     0152  00A8               	movwf	??_set_time
  2116     0153  01A9               	clrf	??_set_time+1
  2117     0154  0828               	movf	??_set_time,w
  2118     0155  00F4               	movwf	___awmod@dividend
  2119     0156  0829               	movf	??_set_time+1,w
  2120     0157  00F5               	movwf	___awmod@dividend+1
  2121     0158  120A  158A  2746  120A  118A  	fcall	___awmod
  2122     015D  0872               	movf	?___awmod,w
  2123     015E  3E30               	addlw	48
  2124     015F  120A  158A  25BE  120A  118A  	fcall	_clcd_putch
  2125                           
  2126                           ;micro_oven.c: 132:         clcd_putch(sec / 10 + '0', (0xC0 + 8));
  2127     0164  30C8               	movlw	200
  2128     0165  1283               	bcf	3,5	;RP0=0, select bank0
  2129     0166  1303               	bcf	3,6	;RP1=0, select bank0
  2130     0167  00A5               	movwf	clcd_putch@addr
  2131     0168  300A               	movlw	10
  2132     0169  00F2               	movwf	___awdiv@divisor
  2133     016A  3000               	movlw	0
  2134     016B  00F3               	movwf	___awdiv@divisor+1
  2135     016C  083C               	movf	_sec,w
  2136     016D  00A8               	movwf	??_set_time
  2137     016E  01A9               	clrf	??_set_time+1
  2138     016F  0828               	movf	??_set_time,w
  2139     0170  00F4               	movwf	___awdiv@dividend
  2140     0171  0829               	movf	??_set_time+1,w
  2141     0172  00F5               	movwf	___awdiv@dividend+1
  2142     0173  120A  118A  2770  120A  118A  	fcall	___awdiv
  2143     0178  0872               	movf	?___awdiv,w
  2144     0179  3E30               	addlw	48
  2145     017A  120A  158A  25BE  120A  118A  	fcall	_clcd_putch
  2146                           
  2147                           ;micro_oven.c: 133:         clcd_putch(sec % 10 + '0', (0xC0 + 9));
  2148     017F  30C9               	movlw	201
  2149     0180  1283               	bcf	3,5	;RP0=0, select bank0
  2150     0181  1303               	bcf	3,6	;RP1=0, select bank0
  2151     0182  00A5               	movwf	clcd_putch@addr
  2152     0183  300A               	movlw	10
  2153     0184  00F2               	movwf	___awmod@divisor
  2154     0185  3000               	movlw	0
  2155     0186  00F3               	movwf	___awmod@divisor+1
  2156     0187  083C               	movf	_sec,w
  2157     0188  00A8               	movwf	??_set_time
  2158     0189  01A9               	clrf	??_set_time+1
  2159     018A  0828               	movf	??_set_time,w
  2160     018B  00F4               	movwf	___awmod@dividend
  2161     018C  0829               	movf	??_set_time+1,w
  2162     018D  00F5               	movwf	___awmod@dividend+1
  2163     018E  120A  158A  2746  120A  118A  	fcall	___awmod
  2164     0193  0872               	movf	?___awmod,w
  2165     0194  3E30               	addlw	48
  2166     0195  120A  158A  25BE  120A  118A  	fcall	_clcd_putch
  2167     019A                     l258:
  2168     019A  0008               	return
  2169     019B                     __end_of_set_time:
  2170                           
  2171                           	psect	text2
  2172     0DE8                     __ptext2:	
  2173 ;; *************** function ___bmul *****************
  2174 ;; Defined at:
  2175 ;;		line 4 in file "C:\Program Files\Microchip\xc8\v3.10\pic\sources\c99\common\Umul8.c"
  2176 ;; Parameters:    Size  Location     Type
  2177 ;;  multiplier      1    wreg     unsigned char 
  2178 ;;  multiplicand    1    8[COMMON] unsigned char 
  2179 ;; Auto vars:     Size  Location     Type
  2180 ;;  multiplier      1    1[BANK0 ] unsigned char 
  2181 ;;  product         1    0[BANK0 ] unsigned char 
  2182 ;; Return value:  Size  Location     Type
  2183 ;;                  1    wreg      unsigned char 
  2184 ;; Registers used:
  2185 ;;		wreg, status,2, status,0
  2186 ;; Tracked objects:
  2187 ;;		On entry : 0/0
  2188 ;;		On exit  : 0/0
  2189 ;;		Unchanged: 0/0
  2190 ;; Data sizes:     COMMON   BANK0   BANK1   BANK3   BANK2
  2191 ;;      Params:         1       0       0       0       0
  2192 ;;      Locals:         0       2       0       0       0
  2193 ;;      Temps:          0       0       0       0       0
  2194 ;;      Totals:         1       2       0       0       0
  2195 ;;Total ram usage:        3 bytes
  2196 ;; Hardware stack levels used: 1
  2197 ;; Hardware stack levels required when called: 1
  2198 ;; This function calls:
  2199 ;;		Nothing
  2200 ;; This function is called by:
  2201 ;;		_set_time
  2202 ;; This function uses a non-reentrant model
  2203 ;;
  2204                           
  2205     0DE8                     ___bmul:	
  2206                           ;psect for function ___bmul
  2207                           
  2208                           
  2209                           ;incstack = 0
  2210                           ; Regs used in ___bmul: [wreg+status,2+status,0]
  2211                           ;___bmul@multiplier stored from wreg
  2212     0DE8  1283               	bcf	3,5	;RP0=0, select bank0
  2213     0DE9  1303               	bcf	3,6	;RP1=0, select bank0
  2214     0DEA  00A1               	movwf	___bmul@multiplier
  2215     0DEB                     l2637:
  2216     0DEB  01A0               	clrf	___bmul@product
  2217     0DEC                     l2639:
  2218     0DEC  1C21               	btfss	___bmul@multiplier,0
  2219     0DED  2DEF               	goto	u2721
  2220     0DEE  2DF0               	goto	u2720
  2221     0DEF                     u2721:
  2222     0DEF  2DF2               	goto	l2643
  2223     0DF0                     u2720:
  2224     0DF0                     l2641:
  2225     0DF0  0878               	movf	___bmul@multiplicand,w
  2226     0DF1  07A0               	addwf	___bmul@product,f
  2227     0DF2                     l2643:
  2228     0DF2  1003               	clrc
  2229     0DF3  0DF8               	rlf	___bmul@multiplicand,f
  2230     0DF4                     l2645:
  2231     0DF4  1003               	clrc
  2232     0DF5  0CA1               	rrf	___bmul@multiplier,f
  2233     0DF6  0821               	movf	___bmul@multiplier,w
  2234     0DF7  1D03               	btfss	3,2
  2235     0DF8  2DFA               	goto	u2731
  2236     0DF9  2DFB               	goto	u2730
  2237     0DFA                     u2731:
  2238     0DFA  2DEC               	goto	l2639
  2239     0DFB                     u2730:
  2240     0DFB                     l2647:
  2241     0DFB  0820               	movf	___bmul@product,w
  2242     0DFC                     l427:
  2243     0DFC  0008               	return
  2244     0DFD                     __end_of___bmul:
  2245                           
  2246                           	psect	text3
  2247     02B8                     __ptext3:	
  2248 ;; *************** function _set_temp *****************
  2249 ;; Defined at:
  2250 ;;		line 137 in file "micro_oven.c"
  2251 ;; Parameters:    Size  Location     Type
  2252 ;;  key             1    wreg     unsigned char 
  2253 ;;  reset_flag      1    7[BANK0 ] unsigned char 
  2254 ;; Auto vars:     Size  Location     Type
  2255 ;;  key             1    8[BANK0 ] unsigned char 
  2256 ;; Return value:  Size  Location     Type
  2257 ;;                  1    wreg      void 
  2258 ;; Registers used:
  2259 ;;		wreg, fsr0l, fsr0h, status,2, status,0, pclath, btemp1, cstack
  2260 ;; Tracked objects:
  2261 ;;		On entry : 0/0
  2262 ;;		On exit  : 0/0
  2263 ;;		Unchanged: 0/0
  2264 ;; Data sizes:     COMMON   BANK0   BANK1   BANK3   BANK2
  2265 ;;      Params:         0       1       0       0       0
  2266 ;;      Locals:         0       1       0       0       0
  2267 ;;      Temps:          0       0       0       0       0
  2268 ;;      Totals:         0       2       0       0       0
  2269 ;;Total ram usage:        2 bytes
  2270 ;; Hardware stack levels used: 1
  2271 ;; Hardware stack levels required when called: 2
  2272 ;; This function calls:
  2273 ;;		___lwdiv
  2274 ;;		___lwmod
  2275 ;;		___wmul
  2276 ;;		_clcd_print
  2277 ;;		_clcd_putch
  2278 ;;		_clear_screen
  2279 ;; This function is called by:
  2280 ;;		_main
  2281 ;; This function uses a non-reentrant model
  2282 ;;
  2283                           
  2284     02B8                     _set_temp:	
  2285                           ;psect for function _set_temp
  2286                           
  2287                           
  2288                           ;incstack = 0
  2289                           ; Regs used in _set_temp: [wreg-fsr0h+status,2+status,0+pclath+btemp1+cstack]
  2290                           ;set_temp@key stored from wreg
  2291     02B8  1283               	bcf	3,5	;RP0=0, select bank0
  2292     02B9  1303               	bcf	3,6	;RP1=0, select bank0
  2293     02BA  00A8               	movwf	set_temp@key
  2294     02BB                     l2417:
  2295                           
  2296                           ;micro_oven.c: 137: void set_temp(unsigned char key, unsigned char reset_flag);micro_ove
      +                          n.c: 138: {;micro_oven.c: 139:     static unsigned char key_count = 0;;micro_oven.c: 140
      +                          :     static unsigned char delay = 0;;micro_oven.c: 141:     static unsigned char displa
      +                          y_blank = 0;;micro_oven.c: 143:     if (reset_flag == 0x31)
  2297     02BB  3031               	movlw	49
  2298     02BC  0627               	xorwf	set_temp@reset_flag,w
  2299     02BD  1D03               	btfss	3,2
  2300     02BE  2AC0               	goto	u2451
  2301     02BF  2AC1               	goto	u2450
  2302     02C0                     u2451:
  2303     02C0  2AC9               	goto	l2423
  2304     02C1                     u2450:
  2305     02C1                     l2419:
  2306                           
  2307                           ;micro_oven.c: 144:     {;micro_oven.c: 145:         temp = 0;
  2308     02C1  01B0               	clrf	_temp
  2309     02C2  01B1               	clrf	_temp+1
  2310                           
  2311                           ;micro_oven.c: 146:         key_count = 0;
  2312     02C3  01B4               	clrf	set_temp@key_count
  2313     02C4                     l2421:
  2314                           
  2315                           ;micro_oven.c: 147:         clear_screen();
  2316     02C4  120A  158A  25AD  120A  118A  	fcall	_clear_screen
  2317     02C9                     l2423:
  2318                           
  2319                           ;micro_oven.c: 151:     clcd_print("SET TEMP <*C>", (0x80 + 0));
  2320     02C9  3060               	movlw	low (STR_11| (0+32768))
  2321     02CA  00F6               	movwf	clcd_print@str
  2322     02CB  3084               	movlw	high (STR_11| (0+32768))
  2323     02CC  00F7               	movwf	clcd_print@str+1
  2324     02CD  3080               	movlw	128
  2325     02CE  00F8               	movwf	clcd_print@addr
  2326     02CF  120A  158A  262A  120A  118A  	fcall	_clcd_print
  2327     02D4                     l2425:
  2328                           
  2329                           ;micro_oven.c: 152:     clcd_print("TEMP=", (0xC0 + 0));
  2330     02D4  30EF               	movlw	low (STR_12| (0+32768))
  2331     02D5  00F6               	movwf	clcd_print@str
  2332     02D6  3084               	movlw	high (STR_12| (0+32768))
  2333     02D7  00F7               	movwf	clcd_print@str+1
  2334     02D8  30C0               	movlw	192
  2335     02D9  00F8               	movwf	clcd_print@addr
  2336     02DA  120A  158A  262A  120A  118A  	fcall	_clcd_print
  2337     02DF                     l2427:
  2338                           
  2339                           ;micro_oven.c: 153:     clcd_print("*:CLEAR #:ENTER", (0xD0 + 0));
  2340     02DF  3022               	movlw	low (STR_13| (0+32768))
  2341     02E0  00F6               	movwf	clcd_print@str
  2342     02E1  3084               	movlw	high (STR_13| (0+32768))
  2343     02E2  00F7               	movwf	clcd_print@str+1
  2344     02E3  30D0               	movlw	208
  2345     02E4  00F8               	movwf	clcd_print@addr
  2346     02E5  120A  158A  262A  120A  118A  	fcall	_clcd_print
  2347     02EA                     l2429:
  2348                           
  2349                           ;micro_oven.c: 156:     if (key != '*' && key != '#' && key != 0xFF)
  2350     02EA  302A               	movlw	42
  2351     02EB  1283               	bcf	3,5	;RP0=0, select bank0
  2352     02EC  1303               	bcf	3,6	;RP1=0, select bank0
  2353     02ED  0628               	xorwf	set_temp@key,w
  2354     02EE  1903               	btfsc	3,2
  2355     02EF  2AF1               	goto	u2461
  2356     02F0  2AF2               	goto	u2460
  2357     02F1                     u2461:
  2358     02F1  2B1D               	goto	l2441
  2359     02F2                     u2460:
  2360     02F2                     l2431:
  2361     02F2  3023               	movlw	35
  2362     02F3  0628               	xorwf	set_temp@key,w
  2363     02F4  1903               	btfsc	3,2
  2364     02F5  2AF7               	goto	u2471
  2365     02F6  2AF8               	goto	u2470
  2366     02F7                     u2471:
  2367     02F7  2B1D               	goto	l2441
  2368     02F8                     u2470:
  2369     02F8                     l2433:
  2370     02F8  0A28               	incf	set_temp@key,w
  2371     02F9  1903               	btfsc	3,2
  2372     02FA  2AFC               	goto	u2481
  2373     02FB  2AFD               	goto	u2480
  2374     02FC                     u2481:
  2375     02FC  2B1D               	goto	l2441
  2376     02FD                     u2480:
  2377     02FD                     l2435:
  2378                           
  2379                           ;micro_oven.c: 157:     {;micro_oven.c: 158:         if (key_count < 3)
  2380     02FD  3003               	movlw	3
  2381     02FE  0234               	subwf	set_temp@key_count,w
  2382     02FF  1803               	skipnc
  2383     0300  2B02               	goto	u2491
  2384     0301  2B03               	goto	u2490
  2385     0302                     u2491:
  2386     0302  2B47               	goto	l2461
  2387     0303                     u2490:
  2388     0303                     l2437:
  2389                           
  2390                           ;micro_oven.c: 159:         {;micro_oven.c: 160:             temp = temp * 10 + key;
  2391     0303  0831               	movf	_temp+1,w
  2392     0304  00F3               	movwf	___wmul@multiplier+1
  2393     0305  0830               	movf	_temp,w
  2394     0306  00F2               	movwf	___wmul@multiplier
  2395     0307  300A               	movlw	10
  2396     0308  00F4               	movwf	___wmul@multiplicand
  2397     0309  3000               	movlw	0
  2398     030A  00F5               	movwf	___wmul@multiplicand+1
  2399     030B  120A  118A  27D5  120A  118A  	fcall	___wmul
  2400     0310  1283               	bcf	3,5	;RP0=0, select bank0
  2401     0311  1303               	bcf	3,6	;RP1=0, select bank0
  2402     0312  0828               	movf	set_temp@key,w
  2403     0313  0772               	addwf	?___wmul,w
  2404     0314  00B0               	movwf	_temp
  2405     0315  3000               	movlw	0
  2406     0316  1803               	skipnc
  2407     0317  3001               	movlw	1
  2408     0318  0773               	addwf	?___wmul+1,w
  2409     0319  00B1               	movwf	_temp+1
  2410     031A                     l2439:
  2411                           
  2412                           ;micro_oven.c: 161:             key_count++;
  2413     031A  3001               	movlw	1
  2414     031B  07B4               	addwf	set_temp@key_count,f
  2415     031C  2B47               	goto	l2461
  2416     031D                     l2441:
  2417     031D  302A               	movlw	42
  2418     031E  0628               	xorwf	set_temp@key,w
  2419     031F  1D03               	btfss	3,2
  2420     0320  2B22               	goto	u2501
  2421     0321  2B23               	goto	u2500
  2422     0322                     u2501:
  2423     0322  2B27               	goto	l2445
  2424     0323                     u2500:
  2425     0323                     l2443:
  2426                           
  2427                           ;micro_oven.c: 165:     {;micro_oven.c: 166:         temp = 0;
  2428     0323  01B0               	clrf	_temp
  2429     0324  01B1               	clrf	_temp+1
  2430                           
  2431                           ;micro_oven.c: 167:         key_count = 0;
  2432     0325  01B4               	clrf	set_temp@key_count
  2433                           
  2434                           ;micro_oven.c: 168:     }
  2435     0326  2B47               	goto	l2461
  2436     0327                     l2445:
  2437     0327  3023               	movlw	35
  2438     0328  0628               	xorwf	set_temp@key,w
  2439     0329  1D03               	btfss	3,2
  2440     032A  2B2C               	goto	u2511
  2441     032B  2B2D               	goto	u2510
  2442     032C                     u2511:
  2443     032C  2B47               	goto	l2461
  2444     032D                     u2510:
  2445     032D                     l2447:
  2446                           
  2447                           ;micro_oven.c: 170:     {;micro_oven.c: 171:         if (temp > 180)
  2448     032D  3000               	movlw	0
  2449     032E  0231               	subwf	_temp+1,w
  2450     032F  30B5               	movlw	181
  2451     0330  1903               	skipnz
  2452     0331  0230               	subwf	_temp,w
  2453     0332  1C03               	skipc
  2454     0333  2B35               	goto	u2521
  2455     0334  2B36               	goto	u2520
  2456     0335                     u2521:
  2457     0335  2B3A               	goto	l2451
  2458     0336                     u2520:
  2459     0336                     l2449:
  2460                           
  2461                           ;micro_oven.c: 172:             temp = 180;
  2462     0336  30B4               	movlw	180
  2463     0337  00B0               	movwf	_temp
  2464     0338  3000               	movlw	0
  2465     0339  00B1               	movwf	_temp+1
  2466     033A                     l2451:
  2467                           
  2468                           ;micro_oven.c: 174:         pre_heat = 60;
  2469     033A  303C               	movlw	60
  2470     033B  00BA               	movwf	_pre_heat
  2471     033C                     l2453:
  2472                           
  2473                           ;micro_oven.c: 175:         TMR2ON = 1;
  2474     033C  1512               	bsf	18,2	;volatile
  2475     033D                     l2455:
  2476                           
  2477                           ;micro_oven.c: 176:         clear_screen();
  2478     033D  120A  158A  25AD  120A  118A  	fcall	_clear_screen
  2479     0342                     l2457:
  2480                           
  2481                           ;micro_oven.c: 177:         screen_flag = 0xA0;
  2482     0342  30A0               	movlw	160
  2483     0343  1283               	bcf	3,5	;RP0=0, select bank0
  2484     0344  1303               	bcf	3,6	;RP1=0, select bank0
  2485     0345  00BE               	movwf	_screen_flag
  2486     0346  2BD3               	goto	l280
  2487     0347                     l2461:
  2488                           
  2489                           ;micro_oven.c: 182:     if (++delay == 10)
  2490     0347  3001               	movlw	1
  2491     0348  07B3               	addwf	set_temp@delay,f
  2492     0349  300A               	movlw	10
  2493     034A  0633               	xorwf	set_temp@delay,w
  2494     034B  1D03               	btfss	3,2
  2495     034C  2B4E               	goto	u2531
  2496     034D  2B4F               	goto	u2530
  2497     034E                     u2531:
  2498     034E  2B58               	goto	l2467
  2499     034F                     u2530:
  2500     034F                     l2463:
  2501                           
  2502                           ;micro_oven.c: 183:     {;micro_oven.c: 184:         delay = 0;
  2503     034F  01B3               	clrf	set_temp@delay
  2504     0350                     l2465:
  2505                           
  2506                           ;micro_oven.c: 185:         display_blank = !display_blank;
  2507     0350  0832               	movf	set_temp@display_blank,w
  2508     0351  1903               	btfsc	3,2
  2509     0352  2B54               	goto	u2541
  2510     0353  2B56               	goto	u2540
  2511     0354                     u2541:
  2512     0354  3001               	movlw	1
  2513     0355  2B57               	goto	u2550
  2514     0356                     u2540:
  2515     0356  3000               	movlw	0
  2516     0357                     u2550:
  2517     0357  00B2               	movwf	set_temp@display_blank
  2518     0358                     l2467:
  2519                           
  2520                           ;micro_oven.c: 188:     if (display_blank)
  2521     0358  0832               	movf	set_temp@display_blank,w
  2522     0359  1903               	btfsc	3,2
  2523     035A  2B5C               	goto	u2561
  2524     035B  2B5D               	goto	u2560
  2525     035C                     u2561:
  2526     035C  2B7A               	goto	l2471
  2527     035D                     u2560:
  2528     035D                     l2469:
  2529                           
  2530                           ;micro_oven.c: 189:     {;micro_oven.c: 190:         clcd_putch(' ', (0xC0 + 7));
  2531     035D  30C7               	movlw	199
  2532     035E  00A5               	movwf	clcd_putch@addr
  2533     035F  3020               	movlw	32
  2534     0360  120A  158A  25BE  120A  118A  	fcall	_clcd_putch
  2535                           
  2536                           ;micro_oven.c: 191:         clcd_putch(' ', (0xC0 + 8));
  2537     0365  30C8               	movlw	200
  2538     0366  1283               	bcf	3,5	;RP0=0, select bank0
  2539     0367  1303               	bcf	3,6	;RP1=0, select bank0
  2540     0368  00A5               	movwf	clcd_putch@addr
  2541     0369  3020               	movlw	32
  2542     036A  120A  158A  25BE  120A  118A  	fcall	_clcd_putch
  2543                           
  2544                           ;micro_oven.c: 192:         clcd_putch(' ', (0xC0 + 9));
  2545     036F  30C9               	movlw	201
  2546     0370  1283               	bcf	3,5	;RP0=0, select bank0
  2547     0371  1303               	bcf	3,6	;RP1=0, select bank0
  2548     0372  00A5               	movwf	clcd_putch@addr
  2549     0373  3020               	movlw	32
  2550     0374  120A  158A  25BE  120A  118A  	fcall	_clcd_putch
  2551                           
  2552                           ;micro_oven.c: 193:     }
  2553     0379  2BD3               	goto	l280
  2554     037A                     l2471:
  2555                           
  2556                           ;micro_oven.c: 195:     {;micro_oven.c: 196:         clcd_putch((temp / 100) + '0', (0xC
      +                          0 + 7));
  2557     037A  30C7               	movlw	199
  2558     037B  00A5               	movwf	clcd_putch@addr
  2559     037C  3064               	movlw	100
  2560     037D  00F2               	movwf	___lwdiv@divisor
  2561     037E  3000               	movlw	0
  2562     037F  00F3               	movwf	___lwdiv@divisor+1
  2563     0380  0831               	movf	_temp+1,w
  2564     0381  00F5               	movwf	___lwdiv@dividend+1
  2565     0382  0830               	movf	_temp,w
  2566     0383  00F4               	movwf	___lwdiv@dividend
  2567     0384  120A  158A  2704  120A  118A  	fcall	___lwdiv
  2568     0389  0872               	movf	?___lwdiv,w
  2569     038A  3E30               	addlw	48
  2570     038B  120A  158A  25BE  120A  118A  	fcall	_clcd_putch
  2571                           
  2572                           ;micro_oven.c: 197:         clcd_putch((temp / 10) % 10 + '0', (0xC0 + 8));
  2573     0390  30C8               	movlw	200
  2574     0391  1283               	bcf	3,5	;RP0=0, select bank0
  2575     0392  1303               	bcf	3,6	;RP1=0, select bank0
  2576     0393  00A5               	movwf	clcd_putch@addr
  2577     0394  300A               	movlw	10
  2578     0395  00A0               	movwf	___lwmod@divisor
  2579     0396  3000               	movlw	0
  2580     0397  00A1               	movwf	___lwmod@divisor+1
  2581     0398  300A               	movlw	10
  2582     0399  00F2               	movwf	___lwdiv@divisor
  2583     039A  3000               	movlw	0
  2584     039B  00F3               	movwf	___lwdiv@divisor+1
  2585     039C  0831               	movf	_temp+1,w
  2586     039D  00F5               	movwf	___lwdiv@dividend+1
  2587     039E  0830               	movf	_temp,w
  2588     039F  00F4               	movwf	___lwdiv@dividend
  2589     03A0  120A  158A  2704  120A  118A  	fcall	___lwdiv
  2590     03A5  0873               	movf	?___lwdiv+1,w
  2591     03A6  1283               	bcf	3,5	;RP0=0, select bank0
  2592     03A7  1303               	bcf	3,6	;RP1=0, select bank0
  2593     03A8  00A3               	movwf	___lwmod@dividend+1
  2594     03A9  0872               	movf	?___lwdiv,w
  2595     03AA  00A2               	movwf	___lwmod@dividend
  2596     03AB  120A  158A  268F  120A  118A  	fcall	___lwmod
  2597     03B0  1283               	bcf	3,5	;RP0=0, select bank0
  2598     03B1  1303               	bcf	3,6	;RP1=0, select bank0
  2599     03B2  0820               	movf	?___lwmod,w
  2600     03B3  3E30               	addlw	48
  2601     03B4  120A  158A  25BE  120A  118A  	fcall	_clcd_putch
  2602                           
  2603                           ;micro_oven.c: 198:         clcd_putch((temp % 10) + '0', (0xC0 + 9));
  2604     03B9  30C9               	movlw	201
  2605     03BA  1283               	bcf	3,5	;RP0=0, select bank0
  2606     03BB  1303               	bcf	3,6	;RP1=0, select bank0
  2607     03BC  00A5               	movwf	clcd_putch@addr
  2608     03BD  300A               	movlw	10
  2609     03BE  00A0               	movwf	___lwmod@divisor
  2610     03BF  3000               	movlw	0
  2611     03C0  00A1               	movwf	___lwmod@divisor+1
  2612     03C1  0831               	movf	_temp+1,w
  2613     03C2  00A3               	movwf	___lwmod@dividend+1
  2614     03C3  0830               	movf	_temp,w
  2615     03C4  00A2               	movwf	___lwmod@dividend
  2616     03C5  120A  158A  268F  120A  118A  	fcall	___lwmod
  2617     03CA  1283               	bcf	3,5	;RP0=0, select bank0
  2618     03CB  1303               	bcf	3,6	;RP1=0, select bank0
  2619     03CC  0820               	movf	?___lwmod,w
  2620     03CD  3E30               	addlw	48
  2621     03CE  120A  158A  25BE  120A  118A  	fcall	_clcd_putch
  2622     03D3                     l280:
  2623     03D3  0008               	return
  2624     03D4                     __end_of_set_temp:
  2625                           
  2626                           	psect	text4
  2627     07D5                     __ptext4:	
  2628 ;; *************** function ___wmul *****************
  2629 ;; Defined at:
  2630 ;;		line 15 in file "C:\Program Files\Microchip\xc8\v3.10\pic\sources\c99\common\Umul16.c"
  2631 ;; Parameters:    Size  Location     Type
  2632 ;;  multiplier      2    2[COMMON] unsigned int 
  2633 ;;  multiplicand    2    4[COMMON] unsigned int 
  2634 ;; Auto vars:     Size  Location     Type
  2635 ;;  product         2    6[COMMON] unsigned int 
  2636 ;; Return value:  Size  Location     Type
  2637 ;;                  2    2[COMMON] unsigned int 
  2638 ;; Registers used:
  2639 ;;		wreg, status,2, status,0
  2640 ;; Tracked objects:
  2641 ;;		On entry : 0/0
  2642 ;;		On exit  : 0/0
  2643 ;;		Unchanged: 0/0
  2644 ;; Data sizes:     COMMON   BANK0   BANK1   BANK3   BANK2
  2645 ;;      Params:         4       0       0       0       0
  2646 ;;      Locals:         2       0       0       0       0
  2647 ;;      Temps:          0       0       0       0       0
  2648 ;;      Totals:         6       0       0       0       0
  2649 ;;Total ram usage:        6 bytes
  2650 ;; Hardware stack levels used: 1
  2651 ;; Hardware stack levels required when called: 1
  2652 ;; This function calls:
  2653 ;;		Nothing
  2654 ;; This function is called by:
  2655 ;;		_set_temp
  2656 ;; This function uses a non-reentrant model
  2657 ;;
  2658                           
  2659     07D5                     ___wmul:	
  2660                           ;psect for function ___wmul
  2661                           
  2662     07D5                     l1737:	
  2663                           ;incstack = 0
  2664                           ; Regs used in ___wmul: [wreg+status,2+status,0]
  2665                           
  2666     07D5  01F6               	clrf	___wmul@product
  2667     07D6  01F7               	clrf	___wmul@product+1
  2668     07D7                     l1739:
  2669     07D7  1C72               	btfss	___wmul@multiplier,0
  2670     07D8  2FDA               	goto	u1241
  2671     07D9  2FDB               	goto	u1240
  2672     07DA                     u1241:
  2673     07DA  2FE1               	goto	l401
  2674     07DB                     u1240:
  2675     07DB                     l1741:
  2676     07DB  0874               	movf	___wmul@multiplicand,w
  2677     07DC  07F6               	addwf	___wmul@product,f
  2678     07DD  1803               	skipnc
  2679     07DE  0AF7               	incf	___wmul@product+1,f
  2680     07DF  0875               	movf	___wmul@multiplicand+1,w
  2681     07E0  07F7               	addwf	___wmul@product+1,f
  2682     07E1                     l401:
  2683     07E1  3001               	movlw	1
  2684     07E2                     u1255:
  2685     07E2  1003               	clrc
  2686     07E3  0DF4               	rlf	___wmul@multiplicand,f
  2687     07E4  0DF5               	rlf	___wmul@multiplicand+1,f
  2688     07E5  3EFF               	addlw	-1
  2689     07E6  1D03               	skipz
  2690     07E7  2FE2               	goto	u1255
  2691     07E8                     l1743:
  2692     07E8  3001               	movlw	1
  2693     07E9                     u1265:
  2694     07E9  1003               	clrc
  2695     07EA  0CF3               	rrf	___wmul@multiplier+1,f
  2696     07EB  0CF2               	rrf	___wmul@multiplier,f
  2697     07EC  3EFF               	addlw	-1
  2698     07ED  1D03               	skipz
  2699     07EE  2FE9               	goto	u1265
  2700     07EF                     l1745:
  2701     07EF  0872               	movf	___wmul@multiplier,w
  2702     07F0  0473               	iorwf	___wmul@multiplier+1,w
  2703     07F1  1D03               	btfss	3,2
  2704     07F2  2FF4               	goto	u1271
  2705     07F3  2FF5               	goto	u1270
  2706     07F4                     u1271:
  2707     07F4  2FD7               	goto	l1739
  2708     07F5                     u1270:
  2709     07F5                     l1747:
  2710     07F5  0877               	movf	___wmul@product+1,w
  2711     07F6  00F3               	movwf	?___wmul+1
  2712     07F7  0876               	movf	___wmul@product,w
  2713     07F8  00F2               	movwf	?___wmul
  2714     07F9                     l403:
  2715     07F9  0008               	return
  2716     07FA                     __end_of___wmul:
  2717                           
  2718                           	psect	text5
  2719     0E8F                     __ptext5:	
  2720 ;; *************** function ___lwmod *****************
  2721 ;; Defined at:
  2722 ;;		line 5 in file "C:\Program Files\Microchip\xc8\v3.10\pic\sources\c99\common\lwmod.c"
  2723 ;; Parameters:    Size  Location     Type
  2724 ;;  divisor         2    0[BANK0 ] unsigned int 
  2725 ;;  dividend        2    2[BANK0 ] unsigned int 
  2726 ;; Auto vars:     Size  Location     Type
  2727 ;;  counter         1    4[BANK0 ] unsigned char 
  2728 ;; Return value:  Size  Location     Type
  2729 ;;                  2    0[BANK0 ] unsigned int 
  2730 ;; Registers used:
  2731 ;;		wreg, status,2, status,0
  2732 ;; Tracked objects:
  2733 ;;		On entry : 0/0
  2734 ;;		On exit  : 0/0
  2735 ;;		Unchanged: 0/0
  2736 ;; Data sizes:     COMMON   BANK0   BANK1   BANK3   BANK2
  2737 ;;      Params:         0       4       0       0       0
  2738 ;;      Locals:         0       1       0       0       0
  2739 ;;      Temps:          0       0       0       0       0
  2740 ;;      Totals:         0       5       0       0       0
  2741 ;;Total ram usage:        5 bytes
  2742 ;; Hardware stack levels used: 1
  2743 ;; Hardware stack levels required when called: 1
  2744 ;; This function calls:
  2745 ;;		Nothing
  2746 ;; This function is called by:
  2747 ;;		_set_temp
  2748 ;; This function uses a non-reentrant model
  2749 ;;
  2750                           
  2751     0E8F                     ___lwmod:	
  2752                           ;psect for function ___lwmod
  2753                           
  2754     0E8F                     l2329:	
  2755                           ;incstack = 0
  2756                           ; Regs used in ___lwmod: [wreg+status,2+status,0]
  2757                           
  2758     0E8F  1283               	bcf	3,5	;RP0=0, select bank0
  2759     0E90  1303               	bcf	3,6	;RP1=0, select bank0
  2760     0E91  0820               	movf	___lwmod@divisor,w
  2761     0E92  0421               	iorwf	___lwmod@divisor+1,w
  2762     0E93  1903               	btfsc	3,2
  2763     0E94  2E96               	goto	u2251
  2764     0E95  2E97               	goto	u2250
  2765     0E96                     u2251:
  2766     0E96  2EC4               	goto	l2347
  2767     0E97                     u2250:
  2768     0E97                     l2331:
  2769     0E97  3001               	movlw	1
  2770     0E98  00A4               	movwf	___lwmod@counter
  2771     0E99  2EA3               	goto	l2337
  2772     0E9A                     l2333:
  2773     0E9A  3001               	movlw	1
  2774     0E9B                     u2265:
  2775     0E9B  1003               	clrc
  2776     0E9C  0DA0               	rlf	___lwmod@divisor,f
  2777     0E9D  0DA1               	rlf	___lwmod@divisor+1,f
  2778     0E9E  3EFF               	addlw	-1
  2779     0E9F  1D03               	skipz
  2780     0EA0  2E9B               	goto	u2265
  2781     0EA1                     l2335:
  2782     0EA1  3001               	movlw	1
  2783     0EA2  07A4               	addwf	___lwmod@counter,f
  2784     0EA3                     l2337:
  2785     0EA3  1FA1               	btfss	___lwmod@divisor+1,7
  2786     0EA4  2EA6               	goto	u2271
  2787     0EA5  2EA7               	goto	u2270
  2788     0EA6                     u2271:
  2789     0EA6  2E9A               	goto	l2333
  2790     0EA7                     u2270:
  2791     0EA7                     l2339:
  2792     0EA7  0821               	movf	___lwmod@divisor+1,w
  2793     0EA8  0223               	subwf	___lwmod@dividend+1,w
  2794     0EA9  1D03               	skipz
  2795     0EAA  2EAD               	goto	u2285
  2796     0EAB  0820               	movf	___lwmod@divisor,w
  2797     0EAC  0222               	subwf	___lwmod@dividend,w
  2798     0EAD                     u2285:
  2799     0EAD  1C03               	skipc
  2800     0EAE  2EB0               	goto	u2281
  2801     0EAF  2EB1               	goto	u2280
  2802     0EB0                     u2281:
  2803     0EB0  2EB7               	goto	l2343
  2804     0EB1                     u2280:
  2805     0EB1                     l2341:
  2806     0EB1  0820               	movf	___lwmod@divisor,w
  2807     0EB2  02A2               	subwf	___lwmod@dividend,f
  2808     0EB3  0821               	movf	___lwmod@divisor+1,w
  2809     0EB4  1C03               	skipc
  2810     0EB5  03A3               	decf	___lwmod@dividend+1,f
  2811     0EB6  02A3               	subwf	___lwmod@dividend+1,f
  2812     0EB7                     l2343:
  2813     0EB7  3001               	movlw	1
  2814     0EB8                     u2295:
  2815     0EB8  1003               	clrc
  2816     0EB9  0CA1               	rrf	___lwmod@divisor+1,f
  2817     0EBA  0CA0               	rrf	___lwmod@divisor,f
  2818     0EBB  3EFF               	addlw	-1
  2819     0EBC  1D03               	skipz
  2820     0EBD  2EB8               	goto	u2295
  2821     0EBE                     l2345:
  2822     0EBE  3001               	movlw	1
  2823     0EBF  02A4               	subwf	___lwmod@counter,f
  2824     0EC0  1D03               	btfss	3,2
  2825     0EC1  2EC3               	goto	u2301
  2826     0EC2  2EC4               	goto	u2300
  2827     0EC3                     u2301:
  2828     0EC3  2EA7               	goto	l2339
  2829     0EC4                     u2300:
  2830     0EC4                     l2347:
  2831     0EC4  0823               	movf	___lwmod@dividend+1,w
  2832     0EC5  00A1               	movwf	?___lwmod+1
  2833     0EC6  0822               	movf	___lwmod@dividend,w
  2834     0EC7  00A0               	movwf	?___lwmod
  2835     0EC8                     l691:
  2836     0EC8  0008               	return
  2837     0EC9                     __end_of___lwmod:
  2838                           
  2839                           	psect	text6
  2840     0F04                     __ptext6:	
  2841 ;; *************** function ___lwdiv *****************
  2842 ;; Defined at:
  2843 ;;		line 5 in file "C:\Program Files\Microchip\xc8\v3.10\pic\sources\c99\common\lwdiv.c"
  2844 ;; Parameters:    Size  Location     Type
  2845 ;;  divisor         2    2[COMMON] unsigned int 
  2846 ;;  dividend        2    4[COMMON] unsigned int 
  2847 ;; Auto vars:     Size  Location     Type
  2848 ;;  quotient        2    6[COMMON] unsigned int 
  2849 ;;  counter         1    8[COMMON] unsigned char 
  2850 ;; Return value:  Size  Location     Type
  2851 ;;                  2    2[COMMON] unsigned int 
  2852 ;; Registers used:
  2853 ;;		wreg, status,2, status,0
  2854 ;; Tracked objects:
  2855 ;;		On entry : 0/0
  2856 ;;		On exit  : 0/0
  2857 ;;		Unchanged: 0/0
  2858 ;; Data sizes:     COMMON   BANK0   BANK1   BANK3   BANK2
  2859 ;;      Params:         4       0       0       0       0
  2860 ;;      Locals:         3       0       0       0       0
  2861 ;;      Temps:          0       0       0       0       0
  2862 ;;      Totals:         7       0       0       0       0
  2863 ;;Total ram usage:        7 bytes
  2864 ;; Hardware stack levels used: 1
  2865 ;; Hardware stack levels required when called: 1
  2866 ;; This function calls:
  2867 ;;		Nothing
  2868 ;; This function is called by:
  2869 ;;		_set_temp
  2870 ;; This function uses a non-reentrant model
  2871 ;;
  2872                           
  2873     0F04                     ___lwdiv:	
  2874                           ;psect for function ___lwdiv
  2875                           
  2876     0F04                     l1833:	
  2877                           ;incstack = 0
  2878                           ; Regs used in ___lwdiv: [wreg+status,2+status,0]
  2879                           
  2880     0F04  01F6               	clrf	___lwdiv@quotient
  2881     0F05  01F7               	clrf	___lwdiv@quotient+1
  2882     0F06                     l1835:
  2883     0F06  0872               	movf	___lwdiv@divisor,w
  2884     0F07  0473               	iorwf	___lwdiv@divisor+1,w
  2885     0F08  1903               	btfsc	3,2
  2886     0F09  2F0B               	goto	u1471
  2887     0F0A  2F0C               	goto	u1470
  2888     0F0B                     u1471:
  2889     0F0B  2F41               	goto	l1855
  2890     0F0C                     u1470:
  2891     0F0C                     l1837:
  2892     0F0C  3001               	movlw	1
  2893     0F0D  00F8               	movwf	___lwdiv@counter
  2894     0F0E  2F18               	goto	l1843
  2895     0F0F                     l1839:
  2896     0F0F  3001               	movlw	1
  2897     0F10                     u1485:
  2898     0F10  1003               	clrc
  2899     0F11  0DF2               	rlf	___lwdiv@divisor,f
  2900     0F12  0DF3               	rlf	___lwdiv@divisor+1,f
  2901     0F13  3EFF               	addlw	-1
  2902     0F14  1D03               	skipz
  2903     0F15  2F10               	goto	u1485
  2904     0F16                     l1841:
  2905     0F16  3001               	movlw	1
  2906     0F17  07F8               	addwf	___lwdiv@counter,f
  2907     0F18                     l1843:
  2908     0F18  1FF3               	btfss	___lwdiv@divisor+1,7
  2909     0F19  2F1B               	goto	u1491
  2910     0F1A  2F1C               	goto	u1490
  2911     0F1B                     u1491:
  2912     0F1B  2F0F               	goto	l1839
  2913     0F1C                     u1490:
  2914     0F1C                     l1845:
  2915     0F1C  3001               	movlw	1
  2916     0F1D                     u1505:
  2917     0F1D  1003               	clrc
  2918     0F1E  0DF6               	rlf	___lwdiv@quotient,f
  2919     0F1F  0DF7               	rlf	___lwdiv@quotient+1,f
  2920     0F20  3EFF               	addlw	-1
  2921     0F21  1D03               	skipz
  2922     0F22  2F1D               	goto	u1505
  2923     0F23  0873               	movf	___lwdiv@divisor+1,w
  2924     0F24  0275               	subwf	___lwdiv@dividend+1,w
  2925     0F25  1D03               	skipz
  2926     0F26  2F29               	goto	u1515
  2927     0F27  0872               	movf	___lwdiv@divisor,w
  2928     0F28  0274               	subwf	___lwdiv@dividend,w
  2929     0F29                     u1515:
  2930     0F29  1C03               	skipc
  2931     0F2A  2F2C               	goto	u1511
  2932     0F2B  2F2D               	goto	u1510
  2933     0F2C                     u1511:
  2934     0F2C  2F34               	goto	l1851
  2935     0F2D                     u1510:
  2936     0F2D                     l1847:
  2937     0F2D  0872               	movf	___lwdiv@divisor,w
  2938     0F2E  02F4               	subwf	___lwdiv@dividend,f
  2939     0F2F  0873               	movf	___lwdiv@divisor+1,w
  2940     0F30  1C03               	skipc
  2941     0F31  03F5               	decf	___lwdiv@dividend+1,f
  2942     0F32  02F5               	subwf	___lwdiv@dividend+1,f
  2943     0F33                     l1849:
  2944     0F33  1476               	bsf	___lwdiv@quotient,0
  2945     0F34                     l1851:
  2946     0F34  3001               	movlw	1
  2947     0F35                     u1525:
  2948     0F35  1003               	clrc
  2949     0F36  0CF3               	rrf	___lwdiv@divisor+1,f
  2950     0F37  0CF2               	rrf	___lwdiv@divisor,f
  2951     0F38  3EFF               	addlw	-1
  2952     0F39  1D03               	skipz
  2953     0F3A  2F35               	goto	u1525
  2954     0F3B                     l1853:
  2955     0F3B  3001               	movlw	1
  2956     0F3C  02F8               	subwf	___lwdiv@counter,f
  2957     0F3D  1D03               	btfss	3,2
  2958     0F3E  2F40               	goto	u1531
  2959     0F3F  2F41               	goto	u1530
  2960     0F40                     u1531:
  2961     0F40  2F1C               	goto	l1845
  2962     0F41                     u1530:
  2963     0F41                     l1855:
  2964     0F41  0877               	movf	___lwdiv@quotient+1,w
  2965     0F42  00F3               	movwf	?___lwdiv+1
  2966     0F43  0876               	movf	___lwdiv@quotient,w
  2967     0F44  00F2               	movwf	?___lwdiv
  2968     0F45                     l681:
  2969     0F45  0008               	return
  2970     0F46                     __end_of___lwdiv:
  2971                           
  2972                           	psect	text7
  2973     03D4                     __ptext7:	
  2974 ;; *************** function _read_matrix_keypad *****************
  2975 ;; Defined at:
  2976 ;;		line 114 in file "matrix_keypad.c"
  2977 ;; Parameters:    Size  Location     Type
  2978 ;;  mode            1    wreg     unsigned char 
  2979 ;; Auto vars:     Size  Location     Type
  2980 ;;  mode            1    4[COMMON] unsigned char 
  2981 ;;  key             1    5[COMMON] unsigned char 
  2982 ;; Return value:  Size  Location     Type
  2983 ;;                  1    wreg      unsigned char 
  2984 ;; Registers used:
  2985 ;;		wreg, status,2, status,0, pclath, btemp1, cstack
  2986 ;; Tracked objects:
  2987 ;;		On entry : 0/0
  2988 ;;		On exit  : 0/0
  2989 ;;		Unchanged: 0/0
  2990 ;; Data sizes:     COMMON   BANK0   BANK1   BANK3   BANK2
  2991 ;;      Params:         0       0       0       0       0
  2992 ;;      Locals:         2       0       0       0       0
  2993 ;;      Temps:          0       0       0       0       0
  2994 ;;      Totals:         2       0       0       0       0
  2995 ;;Total ram usage:        2 bytes
  2996 ;; Hardware stack levels used: 1
  2997 ;; Hardware stack levels required when called: 2
  2998 ;; This function calls:
  2999 ;;		_scan_keypad
  3000 ;; This function is called by:
  3001 ;;		_main
  3002 ;; This function uses a non-reentrant model
  3003 ;;
  3004                           
  3005     03D4                     _read_matrix_keypad:	
  3006                           ;psect for function _read_matrix_keypad
  3007                           
  3008                           
  3009                           ;incstack = 0
  3010                           ; Regs used in _read_matrix_keypad: [wreg+status,2+status,0+pclath+btemp1+cstack]
  3011                           ;read_matrix_keypad@mode stored from wreg
  3012     03D4  00F4               	movwf	read_matrix_keypad@mode
  3013     03D5                     l1891:
  3014                           
  3015                           ;matrix_keypad.c: 114: unsigned char read_matrix_keypad(unsigned char mode);matrix_keypa
      +                          d.c: 115: {;matrix_keypad.c: 116:     static unsigned char once = 1;;matrix_keypad.c: 11
      +                          7:     unsigned char key;;matrix_keypad.c: 119:     key = scan_keypad();
  3016     03D5  120A  118A  25DA  120A  118A  	fcall	_scan_keypad
  3017     03DA  00F5               	movwf	read_matrix_keypad@key
  3018     03DB                     l1893:
  3019                           
  3020                           ;matrix_keypad.c: 121:     if (mode == 0)
  3021     03DB  0874               	movf	read_matrix_keypad@mode,w
  3022     03DC  1D03               	btfss	3,2
  3023     03DD  2BDF               	goto	u1601
  3024     03DE  2BE0               	goto	u1600
  3025     03DF                     u1601:
  3026     03DF  2BE2               	goto	l1901
  3027     03E0                     u1600:
  3028     03E0                     l1895:
  3029                           
  3030                           ;matrix_keypad.c: 122:     {;matrix_keypad.c: 123:         return key;
  3031     03E0  0875               	movf	read_matrix_keypad@key,w
  3032     03E1  2BF6               	goto	l184
  3033     03E2                     l1901:
  3034                           
  3035                           ;matrix_keypad.c: 126:     {;matrix_keypad.c: 127:         if ((key != 0xFF) && once)
  3036     03E2  0A75               	incf	read_matrix_keypad@key,w
  3037     03E3  1903               	btfsc	3,2
  3038     03E4  2BE6               	goto	u1611
  3039     03E5  2BE7               	goto	u1610
  3040     03E6                     u1611:
  3041     03E6  2BEE               	goto	l1913
  3042     03E7                     u1610:
  3043     03E7                     l1903:
  3044     03E7  087B               	movf	read_matrix_keypad@once,w
  3045     03E8  1903               	btfsc	3,2
  3046     03E9  2BEB               	goto	u1621
  3047     03EA  2BEC               	goto	u1620
  3048     03EB                     u1621:
  3049     03EB  2BEE               	goto	l1913
  3050     03EC                     u1620:
  3051     03EC                     l1905:
  3052                           
  3053                           ;matrix_keypad.c: 128:         {;matrix_keypad.c: 129:             once = 0;
  3054     03EC  01FB               	clrf	read_matrix_keypad@once
  3055     03ED  2BE0               	goto	l1895
  3056     03EE                     l1913:
  3057     03EE  0A75               	incf	read_matrix_keypad@key,w
  3058     03EF  1D03               	btfss	3,2
  3059     03F0  2BF2               	goto	u1631
  3060     03F1  2BF3               	goto	u1630
  3061     03F2                     u1631:
  3062     03F2  2BF5               	goto	l1917
  3063     03F3                     u1630:
  3064     03F3                     l1915:
  3065                           
  3066                           ;matrix_keypad.c: 134:         {;matrix_keypad.c: 135:             once = 1;
  3067     03F3  3001               	movlw	1
  3068     03F4  00FB               	movwf	read_matrix_keypad@once
  3069     03F5                     l1917:
  3070                           
  3071                           ;matrix_keypad.c: 139:     return 0xFF;
  3072     03F5  30FF               	movlw	255
  3073     03F6                     l184:
  3074     03F6  0008               	return
  3075     03F7                     __end_of_read_matrix_keypad:
  3076                           
  3077                           	psect	text8
  3078     05DA                     __ptext8:	
  3079 ;; *************** function _scan_keypad *****************
  3080 ;; Defined at:
  3081 ;;		line 24 in file "matrix_keypad.c"
  3082 ;; Parameters:    Size  Location     Type
  3083 ;;		None
  3084 ;; Auto vars:     Size  Location     Type
  3085 ;;  i               2    2[COMMON] int 
  3086 ;; Return value:  Size  Location     Type
  3087 ;;                  1    wreg      unsigned char 
  3088 ;; Registers used:
  3089 ;;		wreg, status,2, status,0, btemp1
  3090 ;; Tracked objects:
  3091 ;;		On entry : 0/0
  3092 ;;		On exit  : 0/0
  3093 ;;		Unchanged: 0/0
  3094 ;; Data sizes:     COMMON   BANK0   BANK1   BANK3   BANK2
  3095 ;;      Params:         0       0       0       0       0
  3096 ;;      Locals:         2       0       0       0       0
  3097 ;;      Temps:          0       0       0       0       0
  3098 ;;      Totals:         2       0       0       0       0
  3099 ;;Total ram usage:        2 bytes
  3100 ;; Hardware stack levels used: 1
  3101 ;; Hardware stack levels required when called: 1
  3102 ;; This function calls:
  3103 ;;		Nothing
  3104 ;; This function is called by:
  3105 ;;		_read_matrix_keypad
  3106 ;; This function uses a non-reentrant model
  3107 ;;
  3108                           
  3109     05DA                     _scan_keypad:	
  3110                           ;psect for function _scan_keypad
  3111                           
  3112     05DA                     l1633:	
  3113                           ;incstack = 0
  3114                           ; Regs used in _scan_keypad: [wreg+status,2+status,0+btemp1]
  3115                           
  3116                           
  3117                           ;matrix_keypad.c: 26:     int i;;matrix_keypad.c: 28:     RD3 = 0;
  3118     05DA  1283               	bcf	3,5	;RP0=0, select bank0
  3119     05DB  1303               	bcf	3,6	;RP1=0, select bank0
  3120     05DC  1188               	bcf	8,3	;volatile
  3121                           
  3122                           ;matrix_keypad.c: 29:     RD2 = 1;
  3123     05DD  1508               	bsf	8,2	;volatile
  3124                           
  3125                           ;matrix_keypad.c: 30:     RD1 = 1;
  3126     05DE  1488               	bsf	8,1	;volatile
  3127                           
  3128                           ;matrix_keypad.c: 31:     RD0 = 1;
  3129     05DF  1408               	bsf	8,0	;volatile
  3130     05E0                     l1635:
  3131                           
  3132                           ;matrix_keypad.c: 33:     for (i = 100; i--; );
  3133     05E0  3064               	movlw	100
  3134     05E1  00F2               	movwf	scan_keypad@i
  3135     05E2  3000               	movlw	0
  3136     05E3  00F3               	movwf	scan_keypad@i+1
  3137     05E4                     l1637:
  3138     05E4  30FF               	movlw	255
  3139     05E5  07F2               	addwf	scan_keypad@i,f
  3140     05E6  1803               	skipnc
  3141     05E7  0AF3               	incf	scan_keypad@i+1,f
  3142     05E8  30FF               	movlw	255
  3143     05E9  07F3               	addwf	scan_keypad@i+1,f
  3144     05EA  0A72               	incf	scan_keypad@i,w
  3145     05EB  1D03               	skipz
  3146     05EC  2DF1               	goto	u1081
  3147     05ED  0A73               	incf	scan_keypad@i+1,w
  3148     05EE  1D03               	btfss	3,2
  3149     05EF  2DF1               	goto	u1081
  3150     05F0  2DF2               	goto	u1080
  3151     05F1                     u1081:
  3152     05F1  2DE4               	goto	l1637
  3153     05F2                     u1080:
  3154     05F2                     l151:
  3155                           
  3156                           ;matrix_keypad.c: 35:     if (RB0 == 0)
  3157     05F2  1283               	bcf	3,5	;RP0=0, select bank0
  3158     05F3  1303               	bcf	3,6	;RP1=0, select bank0
  3159     05F4  1806               	btfsc	6,0	;volatile
  3160     05F5  2DF7               	goto	u1091
  3161     05F6  2DF8               	goto	u1090
  3162     05F7                     u1091:
  3163     05F7  2DFA               	goto	l152
  3164     05F8                     u1090:
  3165     05F8                     l1639:
  3166                           
  3167                           ;matrix_keypad.c: 36:     {;matrix_keypad.c: 37:         return 1;
  3168     05F8  3001               	movlw	1
  3169     05F9  2E94               	goto	l153
  3170     05FA                     l152:	
  3171                           ;matrix_keypad.c: 39:     else if (RB1 == 0)
  3172                           
  3173     05FA  1886               	btfsc	6,1	;volatile
  3174     05FB  2DFD               	goto	u1101
  3175     05FC  2DFE               	goto	u1100
  3176     05FD                     u1101:
  3177     05FD  2E00               	goto	l155
  3178     05FE                     u1100:
  3179     05FE                     l1645:
  3180                           
  3181                           ;matrix_keypad.c: 40:     {;matrix_keypad.c: 41:         return 2;
  3182     05FE  3002               	movlw	2
  3183     05FF  2E94               	goto	l153
  3184     0600                     l155:	
  3185                           ;matrix_keypad.c: 43:     else if (RB2 == 0)
  3186                           
  3187     0600  1906               	btfsc	6,2	;volatile
  3188     0601  2E03               	goto	u1111
  3189     0602  2E04               	goto	u1110
  3190     0603                     u1111:
  3191     0603  2E06               	goto	l154
  3192     0604                     u1110:
  3193     0604                     l1651:
  3194                           
  3195                           ;matrix_keypad.c: 44:     {;matrix_keypad.c: 45:         return 3;
  3196     0604  3003               	movlw	3
  3197     0605  2E94               	goto	l153
  3198     0606                     l154:
  3199                           
  3200                           ;matrix_keypad.c: 48:     RD3 = 1;
  3201     0606  1588               	bsf	8,3	;volatile
  3202                           
  3203                           ;matrix_keypad.c: 49:     RD2 = 0;
  3204     0607  1108               	bcf	8,2	;volatile
  3205                           
  3206                           ;matrix_keypad.c: 50:     RD1 = 1;
  3207     0608  1488               	bsf	8,1	;volatile
  3208                           
  3209                           ;matrix_keypad.c: 51:     RD0 = 1;
  3210     0609  1408               	bsf	8,0	;volatile
  3211     060A                     l1655:
  3212                           
  3213                           ;matrix_keypad.c: 53:    for (i = 100; i > 0; i--)
  3214     060A  3064               	movlw	100
  3215     060B  00F2               	movwf	scan_keypad@i
  3216     060C  3000               	movlw	0
  3217     060D  00F3               	movwf	scan_keypad@i+1
  3218     060E                     l1661:
  3219                           
  3220                           ;matrix_keypad.c: 54:    {;matrix_keypad.c: 56:    }
  3221     060E  30FF               	movlw	255
  3222     060F  07F2               	addwf	scan_keypad@i,f
  3223     0610  1803               	skipnc
  3224     0611  0AF3               	incf	scan_keypad@i+1,f
  3225     0612  30FF               	movlw	255
  3226     0613  07F3               	addwf	scan_keypad@i+1,f
  3227     0614                     l1663:
  3228     0614  0873               	movf	scan_keypad@i+1,w
  3229     0615  3A80               	xorlw	128
  3230     0616  00FF               	movwf	btemp1
  3231     0617  3080               	movlw	128
  3232     0618  027F               	subwf	btemp1,w
  3233     0619  1D03               	skipz
  3234     061A  2E1D               	goto	u1125
  3235     061B  3001               	movlw	1
  3236     061C  0272               	subwf	scan_keypad@i,w
  3237     061D                     u1125:
  3238     061D  1803               	skipnc
  3239     061E  2E20               	goto	u1121
  3240     061F  2E21               	goto	u1120
  3241     0620                     u1121:
  3242     0620  2E0E               	goto	l1661
  3243     0621                     u1120:
  3244     0621                     l159:
  3245                           
  3246                           ;matrix_keypad.c: 58:     if (RB0 == 0)
  3247     0621  1283               	bcf	3,5	;RP0=0, select bank0
  3248     0622  1303               	bcf	3,6	;RP1=0, select bank0
  3249     0623  1806               	btfsc	6,0	;volatile
  3250     0624  2E26               	goto	u1131
  3251     0625  2E27               	goto	u1130
  3252     0626                     u1131:
  3253     0626  2E29               	goto	l160
  3254     0627                     u1130:
  3255     0627                     l1665:
  3256                           
  3257                           ;matrix_keypad.c: 59:     {;matrix_keypad.c: 60:         return 4;
  3258     0627  3004               	movlw	4
  3259     0628  2E94               	goto	l153
  3260     0629                     l160:	
  3261                           ;matrix_keypad.c: 62:     else if (RB1 == 0)
  3262                           
  3263     0629  1886               	btfsc	6,1	;volatile
  3264     062A  2E2C               	goto	u1141
  3265     062B  2E2D               	goto	u1140
  3266     062C                     u1141:
  3267     062C  2E2F               	goto	l162
  3268     062D                     u1140:
  3269     062D                     l1671:
  3270                           
  3271                           ;matrix_keypad.c: 63:     {;matrix_keypad.c: 64:         return 5;
  3272     062D  3005               	movlw	5
  3273     062E  2E94               	goto	l153
  3274     062F                     l162:	
  3275                           ;matrix_keypad.c: 66:     else if (RB2 == 0)
  3276                           
  3277     062F  1906               	btfsc	6,2	;volatile
  3278     0630  2E32               	goto	u1151
  3279     0631  2E33               	goto	u1150
  3280     0632                     u1151:
  3281     0632  2E35               	goto	l161
  3282     0633                     u1150:
  3283     0633                     l1677:
  3284                           
  3285                           ;matrix_keypad.c: 67:     {;matrix_keypad.c: 68:         return 6;
  3286     0633  3006               	movlw	6
  3287     0634  2E94               	goto	l153
  3288     0635                     l161:
  3289                           
  3290                           ;matrix_keypad.c: 71:     RD3 = 1;
  3291     0635  1588               	bsf	8,3	;volatile
  3292                           
  3293                           ;matrix_keypad.c: 72:     RD2 = 1;
  3294     0636  1508               	bsf	8,2	;volatile
  3295                           
  3296                           ;matrix_keypad.c: 73:     RD1 = 0;
  3297     0637  1088               	bcf	8,1	;volatile
  3298                           
  3299                           ;matrix_keypad.c: 74:     RD0 = 1;
  3300     0638  1408               	bsf	8,0	;volatile
  3301     0639                     l1681:
  3302                           
  3303                           ;matrix_keypad.c: 76:     for (i = 100; i > 0; i--);
  3304     0639  3064               	movlw	100
  3305     063A  00F2               	movwf	scan_keypad@i
  3306     063B  3000               	movlw	0
  3307     063C  00F3               	movwf	scan_keypad@i+1
  3308     063D                     l1687:
  3309     063D  30FF               	movlw	255
  3310     063E  07F2               	addwf	scan_keypad@i,f
  3311     063F  1803               	skipnc
  3312     0640  0AF3               	incf	scan_keypad@i+1,f
  3313     0641  30FF               	movlw	255
  3314     0642  07F3               	addwf	scan_keypad@i+1,f
  3315     0643                     l1689:
  3316     0643  0873               	movf	scan_keypad@i+1,w
  3317     0644  3A80               	xorlw	128
  3318     0645  00FF               	movwf	btemp1
  3319     0646  3080               	movlw	128
  3320     0647  027F               	subwf	btemp1,w
  3321     0648  1D03               	skipz
  3322     0649  2E4C               	goto	u1165
  3323     064A  3001               	movlw	1
  3324     064B  0272               	subwf	scan_keypad@i,w
  3325     064C                     u1165:
  3326     064C  1803               	skipnc
  3327     064D  2E4F               	goto	u1161
  3328     064E  2E50               	goto	u1160
  3329     064F                     u1161:
  3330     064F  2E3D               	goto	l1687
  3331     0650                     u1160:
  3332     0650                     l166:
  3333                           
  3334                           ;matrix_keypad.c: 78:     if (RB0 == 0)
  3335     0650  1283               	bcf	3,5	;RP0=0, select bank0
  3336     0651  1303               	bcf	3,6	;RP1=0, select bank0
  3337     0652  1806               	btfsc	6,0	;volatile
  3338     0653  2E55               	goto	u1171
  3339     0654  2E56               	goto	u1170
  3340     0655                     u1171:
  3341     0655  2E58               	goto	l167
  3342     0656                     u1170:
  3343     0656                     l1691:
  3344                           
  3345                           ;matrix_keypad.c: 79:     {;matrix_keypad.c: 80:         return 7;
  3346     0656  3007               	movlw	7
  3347     0657  2E94               	goto	l153
  3348     0658                     l167:	
  3349                           ;matrix_keypad.c: 82:     else if (RB1 == 0)
  3350                           
  3351     0658  1886               	btfsc	6,1	;volatile
  3352     0659  2E5B               	goto	u1181
  3353     065A  2E5C               	goto	u1180
  3354     065B                     u1181:
  3355     065B  2E5E               	goto	l169
  3356     065C                     u1180:
  3357     065C                     l1697:
  3358                           
  3359                           ;matrix_keypad.c: 83:     {;matrix_keypad.c: 84:         return 8;
  3360     065C  3008               	movlw	8
  3361     065D  2E94               	goto	l153
  3362     065E                     l169:	
  3363                           ;matrix_keypad.c: 86:     else if (RB2 == 0)
  3364                           
  3365     065E  1906               	btfsc	6,2	;volatile
  3366     065F  2E61               	goto	u1191
  3367     0660  2E62               	goto	u1190
  3368     0661                     u1191:
  3369     0661  2E64               	goto	l168
  3370     0662                     u1190:
  3371     0662                     l1703:
  3372                           
  3373                           ;matrix_keypad.c: 87:     {;matrix_keypad.c: 88:         return 9;
  3374     0662  3009               	movlw	9
  3375     0663  2E94               	goto	l153
  3376     0664                     l168:
  3377                           
  3378                           ;matrix_keypad.c: 91:     RD3 = 1;
  3379     0664  1588               	bsf	8,3	;volatile
  3380                           
  3381                           ;matrix_keypad.c: 92:     RD2 = 1;
  3382     0665  1508               	bsf	8,2	;volatile
  3383                           
  3384                           ;matrix_keypad.c: 93:     RD1 = 1;
  3385     0666  1488               	bsf	8,1	;volatile
  3386                           
  3387                           ;matrix_keypad.c: 94:     RD0 = 0;
  3388     0667  1008               	bcf	8,0	;volatile
  3389     0668                     l1707:
  3390                           
  3391                           ;matrix_keypad.c: 96:     for (i = 100; i > 0; i--);
  3392     0668  3064               	movlw	100
  3393     0669  00F2               	movwf	scan_keypad@i
  3394     066A  3000               	movlw	0
  3395     066B  00F3               	movwf	scan_keypad@i+1
  3396     066C                     l1713:
  3397     066C  30FF               	movlw	255
  3398     066D  07F2               	addwf	scan_keypad@i,f
  3399     066E  1803               	skipnc
  3400     066F  0AF3               	incf	scan_keypad@i+1,f
  3401     0670  30FF               	movlw	255
  3402     0671  07F3               	addwf	scan_keypad@i+1,f
  3403     0672                     l1715:
  3404     0672  0873               	movf	scan_keypad@i+1,w
  3405     0673  3A80               	xorlw	128
  3406     0674  00FF               	movwf	btemp1
  3407     0675  3080               	movlw	128
  3408     0676  027F               	subwf	btemp1,w
  3409     0677  1D03               	skipz
  3410     0678  2E7B               	goto	u1205
  3411     0679  3001               	movlw	1
  3412     067A  0272               	subwf	scan_keypad@i,w
  3413     067B                     u1205:
  3414     067B  1803               	skipnc
  3415     067C  2E7E               	goto	u1201
  3416     067D  2E7F               	goto	u1200
  3417     067E                     u1201:
  3418     067E  2E6C               	goto	l1713
  3419     067F                     u1200:
  3420     067F                     l173:
  3421                           
  3422                           ;matrix_keypad.c: 98:     if (RB0 == 0)
  3423     067F  1283               	bcf	3,5	;RP0=0, select bank0
  3424     0680  1303               	bcf	3,6	;RP1=0, select bank0
  3425     0681  1806               	btfsc	6,0	;volatile
  3426     0682  2E84               	goto	u1211
  3427     0683  2E85               	goto	u1210
  3428     0684                     u1211:
  3429     0684  2E87               	goto	l174
  3430     0685                     u1210:
  3431     0685                     l1717:
  3432                           
  3433                           ;matrix_keypad.c: 99:     {;matrix_keypad.c: 100:         return '*';
  3434     0685  302A               	movlw	42
  3435     0686  2E94               	goto	l153
  3436     0687                     l174:	
  3437                           ;matrix_keypad.c: 102:     else if (RB1 == 0)
  3438                           
  3439     0687  1886               	btfsc	6,1	;volatile
  3440     0688  2E8A               	goto	u1221
  3441     0689  2E8B               	goto	u1220
  3442     068A                     u1221:
  3443     068A  2E8D               	goto	l176
  3444     068B                     u1220:
  3445     068B                     l1723:
  3446                           
  3447                           ;matrix_keypad.c: 103:     {;matrix_keypad.c: 104:         return 0;
  3448     068B  3000               	movlw	0
  3449     068C  2E94               	goto	l153
  3450     068D                     l176:	
  3451                           ;matrix_keypad.c: 106:     else if (RB2 == 0)
  3452                           
  3453     068D  1906               	btfsc	6,2	;volatile
  3454     068E  2E90               	goto	u1231
  3455     068F  2E91               	goto	u1230
  3456     0690                     u1231:
  3457     0690  2E93               	goto	l1733
  3458     0691                     u1230:
  3459     0691                     l1729:
  3460                           
  3461                           ;matrix_keypad.c: 107:     {;matrix_keypad.c: 108:         return '#';
  3462     0691  3023               	movlw	35
  3463     0692  2E94               	goto	l153
  3464     0693                     l1733:
  3465                           
  3466                           ;matrix_keypad.c: 111:     return 0xFF;
  3467     0693  30FF               	movlw	255
  3468     0694                     l153:
  3469     0694  0008               	return
  3470     0695                     __end_of_scan_keypad:
  3471                           
  3472                           	psect	text9
  3473     0DD3                     __ptext9:	
  3474 ;; *************** function _init_config *****************
  3475 ;; Defined at:
  3476 ;;		line 13 in file "main.c"
  3477 ;; Parameters:    Size  Location     Type
  3478 ;;		None
  3479 ;; Auto vars:     Size  Location     Type
  3480 ;;		None
  3481 ;; Return value:  Size  Location     Type
  3482 ;;                  1    wreg      void 
  3483 ;; Registers used:
  3484 ;;		wreg, status,2, status,0, pclath, cstack
  3485 ;; Tracked objects:
  3486 ;;		On entry : 0/0
  3487 ;;		On exit  : 0/0
  3488 ;;		Unchanged: 0/0
  3489 ;; Data sizes:     COMMON   BANK0   BANK1   BANK3   BANK2
  3490 ;;      Params:         0       0       0       0       0
  3491 ;;      Locals:         0       0       0       0       0
  3492 ;;      Temps:          0       0       0       0       0
  3493 ;;      Totals:         0       0       0       0       0
  3494 ;;Total ram usage:        0 bytes
  3495 ;; Hardware stack levels used: 1
  3496 ;; Hardware stack levels required when called: 4
  3497 ;; This function calls:
  3498 ;;		_init_clcd
  3499 ;;		_init_matrix_keypad
  3500 ;;		_init_timer2
  3501 ;; This function is called by:
  3502 ;;		_main
  3503 ;; This function uses a non-reentrant model
  3504 ;;
  3505                           
  3506     0DD3                     _init_config:	
  3507                           ;psect for function _init_config
  3508                           
  3509     0DD3                     l1881:	
  3510                           ;incstack = 0
  3511                           ; Regs used in _init_config: [wreg+status,2+status,0+pclath+cstack]
  3512                           
  3513                           
  3514                           ;main.c: 15: {
  3515     0DD3  120A  158A  2592  120A  158A  	fcall	_init_clcd
  3516                           
  3517                           ;main.c: 16:     init_config();
  3518     0DD8  120A  158A  259D  120A  158A  	fcall	_init_matrix_keypad
  3519     0DDD                     l1883:
  3520                           
  3521                           ;main.c: 17:     unsigned char key;
  3522     0DDD  120A  118A  23F7  120A  158A  	fcall	_init_timer2
  3523     0DE2                     l1885:
  3524                           
  3525                           ;main.c: 18: 
  3526     0DE2  1683               	bsf	3,5	;RP0=1, select bank1
  3527     0DE3  1303               	bcf	3,6	;RP1=0, select bank1
  3528     0DE4  1107               	bcf	7,2	;volatile
  3529     0DE5                     l1887:
  3530                           
  3531                           ;main.c: 19: 
  3532     0DE5  170B               	bsf	11,6	;volatile
  3533     0DE6                     l1889:
  3534                           
  3535                           ;main.c: 20:     while (1)
  3536     0DE6  178B               	bsf	11,7	;volatile
  3537     0DE7                     l84:
  3538     0DE7  0008               	return
  3539     0DE8                     __end_of_init_config:
  3540                           
  3541                           	psect	text10
  3542     03F7                     __ptext10:	
  3543 ;; *************** function _init_timer2 *****************
  3544 ;; Defined at:
  3545 ;;		line 4 in file "timers.c"
  3546 ;; Parameters:    Size  Location     Type
  3547 ;;		None
  3548 ;; Auto vars:     Size  Location     Type
  3549 ;;		None
  3550 ;; Return value:  Size  Location     Type
  3551 ;;                  1    wreg      void 
  3552 ;; Registers used:
  3553 ;;		None
  3554 ;; Tracked objects:
  3555 ;;		On entry : 0/0
  3556 ;;		On exit  : 0/0
  3557 ;;		Unchanged: 0/0
  3558 ;; Data sizes:     COMMON   BANK0   BANK1   BANK3   BANK2
  3559 ;;      Params:         0       0       0       0       0
  3560 ;;      Locals:         0       0       0       0       0
  3561 ;;      Temps:          0       0       0       0       0
  3562 ;;      Totals:         0       0       0       0       0
  3563 ;;Total ram usage:        0 bytes
  3564 ;; Hardware stack levels used: 1
  3565 ;; Hardware stack levels required when called: 1
  3566 ;; This function calls:
  3567 ;;		Nothing
  3568 ;; This function is called by:
  3569 ;;		_init_config
  3570 ;; This function uses a non-reentrant model
  3571 ;;
  3572                           
  3573     03F7                     _init_timer2:	
  3574                           ;psect for function _init_timer2
  3575                           
  3576     03F7                     l1631:	
  3577                           ;incstack = 0
  3578                           ; Regs used in _init_timer2: []
  3579                           
  3580                           
  3581                           ;timers.c: 8:     PR2 = 250;
  3582     03F7  30FA               	movlw	250
  3583     03F8  1683               	bsf	3,5	;RP0=1, select bank1
  3584     03F9  1303               	bcf	3,6	;RP1=0, select bank1
  3585     03FA  0092               	movwf	18	;volatile
  3586                           
  3587                           ;timers.c: 11:     TMR2IE = 1;
  3588     03FB  148C               	bsf	12,1	;volatile
  3589                           
  3590                           ;timers.c: 14:     TMR2ON = 0;
  3591     03FC  1283               	bcf	3,5	;RP0=0, select bank0
  3592     03FD  1303               	bcf	3,6	;RP1=0, select bank0
  3593     03FE  1112               	bcf	18,2	;volatile
  3594     03FF                     l197:
  3595     03FF  0008               	return
  3596     0400                     __end_of_init_timer2:
  3597                           
  3598                           	psect	text11
  3599     0D9D                     __ptext11:	
  3600 ;; *************** function _init_matrix_keypad *****************
  3601 ;; Defined at:
  3602 ;;		line 4 in file "matrix_keypad.c"
  3603 ;; Parameters:    Size  Location     Type
  3604 ;;		None
  3605 ;; Auto vars:     Size  Location     Type
  3606 ;;		None
  3607 ;; Return value:  Size  Location     Type
  3608 ;;                  1    wreg      void 
  3609 ;; Registers used:
  3610 ;;		wreg, status,2
  3611 ;; Tracked objects:
  3612 ;;		On entry : 0/0
  3613 ;;		On exit  : 0/0
  3614 ;;		Unchanged: 0/0
  3615 ;; Data sizes:     COMMON   BANK0   BANK1   BANK3   BANK2
  3616 ;;      Params:         0       0       0       0       0
  3617 ;;      Locals:         0       0       0       0       0
  3618 ;;      Temps:          0       0       0       0       0
  3619 ;;      Totals:         0       0       0       0       0
  3620 ;;Total ram usage:        0 bytes
  3621 ;; Hardware stack levels used: 1
  3622 ;; Hardware stack levels required when called: 1
  3623 ;; This function calls:
  3624 ;;		Nothing
  3625 ;; This function is called by:
  3626 ;;		_init_config
  3627 ;; This function uses a non-reentrant model
  3628 ;;
  3629                           
  3630     0D9D                     _init_matrix_keypad:	
  3631                           ;psect for function _init_matrix_keypad
  3632                           
  3633     0D9D                     l1619:	
  3634                           ;incstack = 0
  3635                           ; Regs used in _init_matrix_keypad: [wreg+status,2]
  3636                           
  3637                           
  3638                           ;matrix_keypad.c: 8:     TRISB = TRISB | 0x07;
  3639     0D9D  1683               	bsf	3,5	;RP0=1, select bank1
  3640     0D9E  1303               	bcf	3,6	;RP1=0, select bank1
  3641     0D9F  0806               	movf	6,w	;volatile
  3642     0DA0  3807               	iorlw	7
  3643     0DA1  0086               	movwf	6	;volatile
  3644                           
  3645                           ;matrix_keypad.c: 12:     TRISD = TRISD & 0xF0;
  3646     0DA2  0808               	movf	8,w	;volatile
  3647     0DA3  39F0               	andlw	240
  3648     0DA4  0088               	movwf	8	;volatile
  3649     0DA5                     l1621:
  3650                           
  3651                           ;matrix_keypad.c: 15:     nRBPU = 0;
  3652     0DA5  1381               	bcf	1,7	;volatile
  3653     0DA6                     l1623:
  3654                           
  3655                           ;matrix_keypad.c: 18:     RD3 = 1;
  3656     0DA6  1283               	bcf	3,5	;RP0=0, select bank0
  3657     0DA7  1303               	bcf	3,6	;RP1=0, select bank0
  3658     0DA8  1588               	bsf	8,3	;volatile
  3659     0DA9                     l1625:
  3660                           
  3661                           ;matrix_keypad.c: 19:     RD2 = 1;
  3662     0DA9  1508               	bsf	8,2	;volatile
  3663     0DAA                     l1627:
  3664                           
  3665                           ;matrix_keypad.c: 20:     RD1 = 1;
  3666     0DAA  1488               	bsf	8,1	;volatile
  3667     0DAB                     l1629:
  3668                           
  3669                           ;matrix_keypad.c: 21:     RD0 = 1;
  3670     0DAB  1408               	bsf	8,0	;volatile
  3671     0DAC                     l146:
  3672     0DAC  0008               	return
  3673     0DAD                     __end_of_init_matrix_keypad:
  3674                           
  3675                           	psect	text12
  3676     0D92                     __ptext12:	
  3677 ;; *************** function _init_clcd *****************
  3678 ;; Defined at:
  3679 ;;		line 44 in file "clcd.c"
  3680 ;; Parameters:    Size  Location     Type
  3681 ;;		None
  3682 ;; Auto vars:     Size  Location     Type
  3683 ;;		None
  3684 ;; Return value:  Size  Location     Type
  3685 ;;                  1    wreg      void 
  3686 ;; Registers used:
  3687 ;;		wreg, status,2, status,0, pclath, cstack
  3688 ;; Tracked objects:
  3689 ;;		On entry : 0/0
  3690 ;;		On exit  : 0/0
  3691 ;;		Unchanged: 0/0
  3692 ;; Data sizes:     COMMON   BANK0   BANK1   BANK3   BANK2
  3693 ;;      Params:         0       0       0       0       0
  3694 ;;      Locals:         0       0       0       0       0
  3695 ;;      Temps:          0       0       0       0       0
  3696 ;;      Totals:         0       0       0       0       0
  3697 ;;Total ram usage:        0 bytes
  3698 ;; Hardware stack levels used: 1
  3699 ;; Hardware stack levels required when called: 3
  3700 ;; This function calls:
  3701 ;;		_init_display_controller
  3702 ;; This function is called by:
  3703 ;;		_init_config
  3704 ;; This function uses a non-reentrant model
  3705 ;;
  3706                           
  3707     0D92                     _init_clcd:	
  3708                           ;psect for function _init_clcd
  3709                           
  3710     0D92                     l1597:	
  3711                           ;incstack = 0
  3712                           ; Regs used in _init_clcd: [wreg+status,2+status,0+pclath+cstack]
  3713                           
  3714                           
  3715                           ;clcd.c: 47:     TRISD = 0x00;
  3716     0D92  1683               	bsf	3,5	;RP0=1, select bank1
  3717     0D93  1303               	bcf	3,6	;RP1=0, select bank1
  3718     0D94  0188               	clrf	8	;volatile
  3719     0D95                     l1599:
  3720                           
  3721                           ;clcd.c: 50:     TRISE2 = 0;
  3722     0D95  1109               	bcf	9,2	;volatile
  3723     0D96                     l1601:
  3724                           
  3725                           ;clcd.c: 51:     TRISE1 = 0;
  3726     0D96  1089               	bcf	9,1	;volatile
  3727     0D97                     l1603:
  3728                           
  3729                           ;clcd.c: 53:     init_display_controller();
  3730     0D97  120A  158A  279D  120A  158A  	fcall	_init_display_controller
  3731     0D9C                     l23:
  3732     0D9C  0008               	return
  3733     0D9D                     __end_of_init_clcd:
  3734                           
  3735                           	psect	text13
  3736     0F9D                     __ptext13:	
  3737 ;; *************** function _init_display_controller *****************
  3738 ;; Defined at:
  3739 ;;		line 21 in file "clcd.c"
  3740 ;; Parameters:    Size  Location     Type
  3741 ;;		None
  3742 ;; Auto vars:     Size  Location     Type
  3743 ;;		None
  3744 ;; Return value:  Size  Location     Type
  3745 ;;                  1    wreg      void 
  3746 ;; Registers used:
  3747 ;;		wreg, status,2, status,0, pclath, cstack
  3748 ;; Tracked objects:
  3749 ;;		On entry : 0/0
  3750 ;;		On exit  : 0/0
  3751 ;;		Unchanged: 0/0
  3752 ;; Data sizes:     COMMON   BANK0   BANK1   BANK3   BANK2
  3753 ;;      Params:         0       0       0       0       0
  3754 ;;      Locals:         0       0       0       0       0
  3755 ;;      Temps:          2       0       0       0       0
  3756 ;;      Totals:         2       0       0       0       0
  3757 ;;Total ram usage:        2 bytes
  3758 ;; Hardware stack levels used: 1
  3759 ;; Hardware stack levels required when called: 2
  3760 ;; This function calls:
  3761 ;;		_clcd_write
  3762 ;; This function is called by:
  3763 ;;		_init_clcd
  3764 ;; This function uses a non-reentrant model
  3765 ;;
  3766                           
  3767     0F9D                     _init_display_controller:	
  3768                           ;psect for function _init_display_controller
  3769                           
  3770     0F9D                     l1573:	
  3771                           ;incstack = 0
  3772                           ; Regs used in _init_display_controller: [wreg+status,2+status,0+pclath+cstack]
  3773                           
  3774                           
  3775                           ;clcd.c: 24:     _delay((unsigned long)((30)*(20000000/4000.0)));
  3776     0F9D  30C3               	movlw	195
  3777     0F9E  00F7               	movwf	??_init_display_controller+1
  3778     0F9F  30CD               	movlw	205
  3779     0FA0  00F6               	movwf	??_init_display_controller
  3780     0FA1                     u3017:
  3781     0FA1  0BF6               	decfsz	??_init_display_controller,f
  3782     0FA2  2FA1               	goto	u3017
  3783     0FA3  0BF7               	decfsz	??_init_display_controller+1,f
  3784     0FA4  2FA1               	goto	u3017
  3785     0FA5                     l1575:
  3786                           
  3787                           ;clcd.c: 27:     clcd_write(0x33, 0);
  3788     0FA5  01F2               	clrf	clcd_write@mode
  3789     0FA6  3033               	movlw	51
  3790     0FA7  120A  158A  2659  120A  158A  	fcall	_clcd_write
  3791     0FAC                     l1577:
  3792                           
  3793                           ;clcd.c: 28:     _delay((unsigned long)((4100)*(20000000/4000000.0)));
  3794     0FAC  301B               	movlw	27
  3795     0FAD  00F7               	movwf	??_init_display_controller+1
  3796     0FAE  309E               	movlw	158
  3797     0FAF  00F6               	movwf	??_init_display_controller
  3798     0FB0                     u3027:
  3799     0FB0  0BF6               	decfsz	??_init_display_controller,f
  3800     0FB1  2FB0               	goto	u3027
  3801     0FB2  0BF7               	decfsz	??_init_display_controller+1,f
  3802     0FB3  2FB0               	goto	u3027
  3803     0FB4  0000               	nop
  3804                           
  3805                           ;clcd.c: 29:     clcd_write(0x33, 0);
  3806     0FB5  01F2               	clrf	clcd_write@mode
  3807     0FB6  3033               	movlw	51
  3808     0FB7  120A  158A  2659  120A  158A  	fcall	_clcd_write
  3809     0FBC                     l1579:
  3810                           
  3811                           ;clcd.c: 30:     _delay((unsigned long)((100)*(20000000/4000000.0)));
  3812     0FBC  30A6               	movlw	166
  3813     0FBD  00F6               	movwf	??_init_display_controller
  3814     0FBE                     u3037:
  3815     0FBE  0BF6               	decfsz	??_init_display_controller,f
  3816     0FBF  2FBE               	goto	u3037
  3817     0FC0  0000               	nop
  3818     0FC1                     l1581:
  3819                           
  3820                           ;clcd.c: 31:     clcd_write(0x33, 0);
  3821     0FC1  01F2               	clrf	clcd_write@mode
  3822     0FC2  3033               	movlw	51
  3823     0FC3  120A  158A  2659  120A  158A  	fcall	_clcd_write
  3824     0FC8                     l1583:
  3825                           
  3826                           ;clcd.c: 32:     _delay((unsigned long)((1)*(20000000/4000000.0)));
  3827     0FC8  2FC9               	nop2	;2 cycle nop
  3828     0FC9  2FCA               	nop2	;2 cycle nop
  3829     0FCA  0000               	nop
  3830     0FCB                     l1585:
  3831                           
  3832                           ;clcd.c: 34:     clcd_write(0x02, 0);
  3833     0FCB  01F2               	clrf	clcd_write@mode
  3834     0FCC  3002               	movlw	2
  3835     0FCD  120A  158A  2659  120A  158A  	fcall	_clcd_write
  3836     0FD2                     l1587:
  3837                           
  3838                           ;clcd.c: 35:     _delay((unsigned long)((100)*(20000000/4000000.0)));
  3839     0FD2  30A6               	movlw	166
  3840     0FD3  00F6               	movwf	??_init_display_controller
  3841     0FD4                     u3047:
  3842     0FD4  0BF6               	decfsz	??_init_display_controller,f
  3843     0FD5  2FD4               	goto	u3047
  3844     0FD6  0000               	nop
  3845                           
  3846                           ;clcd.c: 36:     clcd_write(0x28, 0);
  3847     0FD7  01F2               	clrf	clcd_write@mode
  3848     0FD8  3028               	movlw	40
  3849     0FD9  120A  158A  2659  120A  158A  	fcall	_clcd_write
  3850     0FDE                     l1589:
  3851                           
  3852                           ;clcd.c: 37:     _delay((unsigned long)((100)*(20000000/4000000.0)));
  3853     0FDE  30A6               	movlw	166
  3854     0FDF  00F6               	movwf	??_init_display_controller
  3855     0FE0                     u3057:
  3856     0FE0  0BF6               	decfsz	??_init_display_controller,f
  3857     0FE1  2FE0               	goto	u3057
  3858     0FE2  0000               	nop
  3859     0FE3                     l1591:
  3860                           
  3861                           ;clcd.c: 38:     clcd_write(0x01, 0);
  3862     0FE3  01F2               	clrf	clcd_write@mode
  3863     0FE4  3001               	movlw	1
  3864     0FE5  120A  158A  2659  120A  158A  	fcall	_clcd_write
  3865                           
  3866                           ;clcd.c: 39:     _delay((unsigned long)((500)*(20000000/4000000.0)));
  3867     0FEA  3004               	movlw	4
  3868     0FEB  00F7               	movwf	??_init_display_controller+1
  3869     0FEC  303D               	movlw	61
  3870     0FED  00F6               	movwf	??_init_display_controller
  3871     0FEE                     u3067:
  3872     0FEE  0BF6               	decfsz	??_init_display_controller,f
  3873     0FEF  2FEE               	goto	u3067
  3874     0FF0  0BF7               	decfsz	??_init_display_controller+1,f
  3875     0FF1  2FEE               	goto	u3067
  3876     0FF2  2FF3               	nop2
  3877     0FF3                     l1593:
  3878                           
  3879                           ;clcd.c: 40:     clcd_write(0x0C, 0);
  3880     0FF3  01F2               	clrf	clcd_write@mode
  3881     0FF4  300C               	movlw	12
  3882     0FF5  120A  158A  2659  120A  158A  	fcall	_clcd_write
  3883     0FFA                     l1595:
  3884                           
  3885                           ;clcd.c: 41:     _delay((unsigned long)((100)*(20000000/4000000.0)));
  3886     0FFA  30A6               	movlw	166
  3887     0FFB  00F6               	movwf	??_init_display_controller
  3888     0FFC                     u3077:
  3889     0FFC  0BF6               	decfsz	??_init_display_controller,f
  3890     0FFD  2FFC               	goto	u3077
  3891     0FFE  0000               	nop
  3892     0FFF                     l20:
  3893     0FFF  0008               	return
  3894     1000                     __end_of_init_display_controller:
  3895                           
  3896                           	psect	text14
  3897     0D88                     __ptext14:	
  3898 ;; *************** function _heat_food *****************
  3899 ;; Defined at:
  3900 ;;		line 229 in file "micro_oven.c"
  3901 ;; Parameters:    Size  Location     Type
  3902 ;;		None
  3903 ;; Auto vars:     Size  Location     Type
  3904 ;;		None
  3905 ;; Return value:  Size  Location     Type
  3906 ;;                  1    wreg      void 
  3907 ;; Registers used:
  3908 ;;		status,2
  3909 ;; Tracked objects:
  3910 ;;		On entry : 0/0
  3911 ;;		On exit  : 0/0
  3912 ;;		Unchanged: 0/0
  3913 ;; Data sizes:     COMMON   BANK0   BANK1   BANK3   BANK2
  3914 ;;      Params:         0       0       0       0       0
  3915 ;;      Locals:         0       0       0       0       0
  3916 ;;      Temps:          0       0       0       0       0
  3917 ;;      Totals:         0       0       0       0       0
  3918 ;;Total ram usage:        0 bytes
  3919 ;; Hardware stack levels used: 1
  3920 ;; Hardware stack levels required when called: 1
  3921 ;; This function calls:
  3922 ;;		Nothing
  3923 ;; This function is called by:
  3924 ;;		_main
  3925 ;; This function uses a non-reentrant model
  3926 ;;
  3927                           
  3928     0D88                     _heat_food:	
  3929                           ;psect for function _heat_food
  3930                           
  3931     0D88                     l2135:	
  3932                           ;incstack = 0
  3933                           ; Regs used in _heat_food: [status,2]
  3934                           
  3935                           
  3936                           ;micro_oven.c: 231:     sec = 30;
  3937     0D88  301E               	movlw	30
  3938     0D89  1283               	bcf	3,5	;RP0=0, select bank0
  3939     0D8A  1303               	bcf	3,6	;RP1=0, select bank0
  3940     0D8B  00BC               	movwf	_sec
  3941     0D8C                     l2137:
  3942                           
  3943                           ;micro_oven.c: 232:     min = 0;
  3944     0D8C  01BB               	clrf	_min
  3945     0D8D                     l2139:
  3946                           
  3947                           ;micro_oven.c: 233:     TMR2ON = 1;
  3948     0D8D  1512               	bsf	18,2	;volatile
  3949     0D8E                     l2141:
  3950                           
  3951                           ;micro_oven.c: 234:     RC2 = 1;
  3952     0D8E  1507               	bsf	7,2	;volatile
  3953     0D8F                     l2143:
  3954                           
  3955                           ;micro_oven.c: 235:     screen_flag = 0x70;
  3956     0D8F  3070               	movlw	112
  3957     0D90  00BE               	movwf	_screen_flag
  3958     0D91                     l290:
  3959     0D91  0008               	return
  3960     0D92                     __end_of_heat_food:
  3961                           
  3962                           	psect	text15
  3963     04F5                     __ptext15:	
  3964 ;; *************** function _display_time *****************
  3965 ;; Defined at:
  3966 ;;		line 203 in file "micro_oven.c"
  3967 ;; Parameters:    Size  Location     Type
  3968 ;;		None
  3969 ;; Auto vars:     Size  Location     Type
  3970 ;;		None
  3971 ;; Return value:  Size  Location     Type
  3972 ;;                  1    wreg      void 
  3973 ;; Registers used:
  3974 ;;		wreg, fsr0l, fsr0h, status,2, status,0, pclath, btemp1, cstack
  3975 ;; Tracked objects:
  3976 ;;		On entry : 0/0
  3977 ;;		On exit  : 0/0
  3978 ;;		Unchanged: 0/0
  3979 ;; Data sizes:     COMMON   BANK0   BANK1   BANK3   BANK2
  3980 ;;      Params:         0       0       0       0       0
  3981 ;;      Locals:         0       0       0       0       0
  3982 ;;      Temps:          0       3       0       0       0
  3983 ;;      Totals:         0       3       0       0       0
  3984 ;;Total ram usage:        3 bytes
  3985 ;; Hardware stack levels used: 1
  3986 ;; Hardware stack levels required when called: 2
  3987 ;; This function calls:
  3988 ;;		___awdiv
  3989 ;;		___awmod
  3990 ;;		_clcd_print
  3991 ;;		_clcd_putch
  3992 ;;		_clear_screen
  3993 ;; This function is called by:
  3994 ;;		_main
  3995 ;; This function uses a non-reentrant model
  3996 ;;
  3997                           
  3998     04F5                     _display_time:	
  3999                           ;psect for function _display_time
  4000                           
  4001     04F5                     l2493:	
  4002                           ;incstack = 0
  4003                           ; Regs used in _display_time: [wreg-fsr0h+status,2+status,0+pclath+btemp1+cstack]
  4004                           
  4005                           
  4006                           ;micro_oven.c: 205:     clcd_print("TIME = ", (0x80 + 1));
  4007     04F5  30D2               	movlw	low (STR_14| (0+32768))
  4008     04F6  00F6               	movwf	clcd_print@str
  4009     04F7  3084               	movlw	high (STR_14| (0+32768))
  4010     04F8  00F7               	movwf	clcd_print@str+1
  4011     04F9  3081               	movlw	129
  4012     04FA  00F8               	movwf	clcd_print@addr
  4013     04FB  120A  158A  262A  120A  118A  	fcall	_clcd_print
  4014     0500                     l2495:
  4015                           
  4016                           ;micro_oven.c: 206:     clcd_putch(min / 10 + '0', (0x80 + 9));
  4017     0500  3089               	movlw	137
  4018     0501  1283               	bcf	3,5	;RP0=0, select bank0
  4019     0502  1303               	bcf	3,6	;RP1=0, select bank0
  4020     0503  00A5               	movwf	clcd_putch@addr
  4021     0504  300A               	movlw	10
  4022     0505  00F2               	movwf	___awdiv@divisor
  4023     0506  3000               	movlw	0
  4024     0507  00F3               	movwf	___awdiv@divisor+1
  4025     0508  083B               	movf	_min,w
  4026     0509  00A7               	movwf	??_display_time
  4027     050A  01A8               	clrf	??_display_time+1
  4028     050B  0827               	movf	??_display_time,w
  4029     050C  00F4               	movwf	___awdiv@dividend
  4030     050D  0828               	movf	??_display_time+1,w
  4031     050E  00F5               	movwf	___awdiv@dividend+1
  4032     050F  120A  118A  2770  120A  118A  	fcall	___awdiv
  4033     0514  0872               	movf	?___awdiv,w
  4034     0515  3E30               	addlw	48
  4035     0516  120A  158A  25BE  120A  118A  	fcall	_clcd_putch
  4036     051B                     l2497:
  4037                           
  4038                           ;micro_oven.c: 207:     clcd_putch(min % 10 + '0', (0x80 + 10));
  4039     051B  308A               	movlw	138
  4040     051C  1283               	bcf	3,5	;RP0=0, select bank0
  4041     051D  1303               	bcf	3,6	;RP1=0, select bank0
  4042     051E  00A5               	movwf	clcd_putch@addr
  4043     051F  300A               	movlw	10
  4044     0520  00F2               	movwf	___awmod@divisor
  4045     0521  3000               	movlw	0
  4046     0522  00F3               	movwf	___awmod@divisor+1
  4047     0523  083B               	movf	_min,w
  4048     0524  00A7               	movwf	??_display_time
  4049     0525  01A8               	clrf	??_display_time+1
  4050     0526  0827               	movf	??_display_time,w
  4051     0527  00F4               	movwf	___awmod@dividend
  4052     0528  0828               	movf	??_display_time+1,w
  4053     0529  00F5               	movwf	___awmod@dividend+1
  4054     052A  120A  158A  2746  120A  118A  	fcall	___awmod
  4055     052F  0872               	movf	?___awmod,w
  4056     0530  3E30               	addlw	48
  4057     0531  120A  158A  25BE  120A  118A  	fcall	_clcd_putch
  4058     0536                     l2499:
  4059                           
  4060                           ;micro_oven.c: 208:     clcd_putch(':', (0x80 + 11));
  4061     0536  308B               	movlw	139
  4062     0537  1283               	bcf	3,5	;RP0=0, select bank0
  4063     0538  1303               	bcf	3,6	;RP1=0, select bank0
  4064     0539  00A5               	movwf	clcd_putch@addr
  4065     053A  303A               	movlw	58
  4066     053B  120A  158A  25BE  120A  118A  	fcall	_clcd_putch
  4067     0540                     l2501:
  4068                           
  4069                           ;micro_oven.c: 209:     clcd_putch(sec / 10 + '0', (0x80 + 12));
  4070     0540  308C               	movlw	140
  4071     0541  1283               	bcf	3,5	;RP0=0, select bank0
  4072     0542  1303               	bcf	3,6	;RP1=0, select bank0
  4073     0543  00A5               	movwf	clcd_putch@addr
  4074     0544  300A               	movlw	10
  4075     0545  00F2               	movwf	___awdiv@divisor
  4076     0546  3000               	movlw	0
  4077     0547  00F3               	movwf	___awdiv@divisor+1
  4078     0548  083C               	movf	_sec,w
  4079     0549  00A7               	movwf	??_display_time
  4080     054A  01A8               	clrf	??_display_time+1
  4081     054B  0827               	movf	??_display_time,w
  4082     054C  00F4               	movwf	___awdiv@dividend
  4083     054D  0828               	movf	??_display_time+1,w
  4084     054E  00F5               	movwf	___awdiv@dividend+1
  4085     054F  120A  118A  2770  120A  118A  	fcall	___awdiv
  4086     0554  0872               	movf	?___awdiv,w
  4087     0555  3E30               	addlw	48
  4088     0556  120A  158A  25BE  120A  118A  	fcall	_clcd_putch
  4089     055B                     l2503:
  4090                           
  4091                           ;micro_oven.c: 210:     clcd_putch(sec % 10 + '0', (0x80 + 13));
  4092     055B  308D               	movlw	141
  4093     055C  1283               	bcf	3,5	;RP0=0, select bank0
  4094     055D  1303               	bcf	3,6	;RP1=0, select bank0
  4095     055E  00A5               	movwf	clcd_putch@addr
  4096     055F  300A               	movlw	10
  4097     0560  00F2               	movwf	___awmod@divisor
  4098     0561  3000               	movlw	0
  4099     0562  00F3               	movwf	___awmod@divisor+1
  4100     0563  083C               	movf	_sec,w
  4101     0564  00A7               	movwf	??_display_time
  4102     0565  01A8               	clrf	??_display_time+1
  4103     0566  0827               	movf	??_display_time,w
  4104     0567  00F4               	movwf	___awmod@dividend
  4105     0568  0828               	movf	??_display_time+1,w
  4106     0569  00F5               	movwf	___awmod@dividend+1
  4107     056A  120A  158A  2746  120A  118A  	fcall	___awmod
  4108     056F  0872               	movf	?___awmod,w
  4109     0570  3E30               	addlw	48
  4110     0571  120A  158A  25BE  120A  118A  	fcall	_clcd_putch
  4111     0576                     l2505:
  4112                           
  4113                           ;micro_oven.c: 212:     clcd_print("4.START/RESUME", (0xC0 + 2));
  4114     0576  3042               	movlw	low (STR_15| (0+32768))
  4115     0577  00F6               	movwf	clcd_print@str
  4116     0578  3084               	movlw	high (STR_15| (0+32768))
  4117     0579  00F7               	movwf	clcd_print@str+1
  4118     057A  30C2               	movlw	194
  4119     057B  00F8               	movwf	clcd_print@addr
  4120     057C  120A  158A  262A  120A  118A  	fcall	_clcd_print
  4121     0581                     l2507:
  4122                           
  4123                           ;micro_oven.c: 213:     clcd_print("5.PAUSE", (0x90 + 2));
  4124     0581  30DA               	movlw	low (STR_16| (0+32768))
  4125     0582  00F6               	movwf	clcd_print@str
  4126     0583  3084               	movlw	high (STR_16| (0+32768))
  4127     0584  00F7               	movwf	clcd_print@str+1
  4128     0585  3092               	movlw	146
  4129     0586  00F8               	movwf	clcd_print@addr
  4130     0587  120A  158A  262A  120A  118A  	fcall	_clcd_print
  4131     058C                     l2509:
  4132                           
  4133                           ;micro_oven.c: 214:     clcd_print("6.STOP", (0xD0 + 2));
  4134     058C  30E2               	movlw	low (STR_17| (0+32768))
  4135     058D  00F6               	movwf	clcd_print@str
  4136     058E  3084               	movlw	high (STR_17| (0+32768))
  4137     058F  00F7               	movwf	clcd_print@str+1
  4138     0590  30D2               	movlw	210
  4139     0591  00F8               	movwf	clcd_print@addr
  4140     0592  120A  158A  262A  120A  118A  	fcall	_clcd_print
  4141     0597                     l2511:
  4142                           
  4143                           ;micro_oven.c: 216:     if (min == 0 && sec == 0)
  4144     0597  1283               	bcf	3,5	;RP0=0, select bank0
  4145     0598  1303               	bcf	3,6	;RP1=0, select bank0
  4146     0599  083B               	movf	_min,w
  4147     059A  1D03               	btfss	3,2
  4148     059B  2D9D               	goto	u2581
  4149     059C  2D9E               	goto	u2580
  4150     059D                     u2581:
  4151     059D  2DD9               	goto	l287
  4152     059E                     u2580:
  4153     059E                     l2513:
  4154     059E  083C               	movf	_sec,w
  4155     059F  1D03               	btfss	3,2
  4156     05A0  2DA2               	goto	u2591
  4157     05A1  2DA3               	goto	u2590
  4158     05A2                     u2591:
  4159     05A2  2DD9               	goto	l287
  4160     05A3                     u2590:
  4161     05A3                     l2515:
  4162                           
  4163                           ;micro_oven.c: 217:     {;micro_oven.c: 218:         clear_screen();
  4164     05A3  120A  158A  25AD  120A  118A  	fcall	_clear_screen
  4165     05A8                     l2517:
  4166                           
  4167                           ;micro_oven.c: 219:         TMR2ON = 0;
  4168     05A8  1283               	bcf	3,5	;RP0=0, select bank0
  4169     05A9  1303               	bcf	3,6	;RP1=0, select bank0
  4170     05AA  1112               	bcf	18,2	;volatile
  4171     05AB                     l2519:
  4172                           
  4173                           ;micro_oven.c: 220:         RC2 = 0;
  4174     05AB  1107               	bcf	7,2	;volatile
  4175     05AC                     l2521:
  4176                           
  4177                           ;micro_oven.c: 221:         clcd_print("TIME UP!!!", (0xC0 + 4));
  4178     05AC  30A1               	movlw	low (STR_18| (0+32768))
  4179     05AD  00F6               	movwf	clcd_print@str
  4180     05AE  3084               	movlw	high (STR_18| (0+32768))
  4181     05AF  00F7               	movwf	clcd_print@str+1
  4182     05B0  30C4               	movlw	196
  4183     05B1  00F8               	movwf	clcd_print@addr
  4184     05B2  120A  158A  262A  120A  118A  	fcall	_clcd_print
  4185     05B7                     l2523:
  4186                           
  4187                           ;micro_oven.c: 222:         clcd_print("Enjoy your Meal", (0x90 + 0));
  4188     05B7  3032               	movlw	low (STR_19| (0+32768))
  4189     05B8  00F6               	movwf	clcd_print@str
  4190     05B9  3084               	movlw	high (STR_19| (0+32768))
  4191     05BA  00F7               	movwf	clcd_print@str+1
  4192     05BB  3090               	movlw	144
  4193     05BC  00F8               	movwf	clcd_print@addr
  4194     05BD  120A  158A  262A  120A  118A  	fcall	_clcd_print
  4195     05C2                     l2525:
  4196                           
  4197                           ;micro_oven.c: 223:         _delay((unsigned long)((2000)*(20000000/4000.0)));
  4198     05C2  3033               	movlw	51
  4199     05C3  1283               	bcf	3,5	;RP0=0, select bank0
  4200     05C4  1303               	bcf	3,6	;RP1=0, select bank0
  4201     05C5  00A9               	movwf	??_display_time+2
  4202     05C6  30BB               	movlw	187
  4203     05C7  00A8               	movwf	??_display_time+1
  4204     05C8  30DF               	movlw	223
  4205     05C9  00A7               	movwf	??_display_time
  4206     05CA                     u3087:
  4207     05CA  0BA7               	decfsz	??_display_time,f
  4208     05CB  2DCA               	goto	u3087
  4209     05CC  0BA8               	decfsz	??_display_time+1,f
  4210     05CD  2DCA               	goto	u3087
  4211     05CE  0BA9               	decfsz	??_display_time+2,f
  4212     05CF  2DCA               	goto	u3087
  4213     05D0                     l2527:
  4214                           
  4215                           ;micro_oven.c: 224:         clear_screen();
  4216     05D0  120A  158A  25AD  120A  118A  	fcall	_clear_screen
  4217     05D5                     l2529:
  4218                           
  4219                           ;micro_oven.c: 225:         screen_flag = 0x20;
  4220     05D5  3020               	movlw	32
  4221     05D6  1283               	bcf	3,5	;RP0=0, select bank0
  4222     05D7  1303               	bcf	3,6	;RP1=0, select bank0
  4223     05D8  00BE               	movwf	_screen_flag
  4224     05D9                     l287:
  4225     05D9  0008               	return
  4226     05DA                     __end_of_display_time:
  4227                           
  4228                           	psect	text16
  4229     0703                     __ptext16:	
  4230 ;; *************** function _display_preheat *****************
  4231 ;; Defined at:
  4232 ;;		line 237 in file "micro_oven.c"
  4233 ;; Parameters:    Size  Location     Type
  4234 ;;		None
  4235 ;; Auto vars:     Size  Location     Type
  4236 ;;		None
  4237 ;; Return value:  Size  Location     Type
  4238 ;;                  1    wreg      void 
  4239 ;; Registers used:
  4240 ;;		wreg, fsr0l, fsr0h, status,2, status,0, pclath, btemp1, cstack
  4241 ;; Tracked objects:
  4242 ;;		On entry : 0/0
  4243 ;;		On exit  : 0/0
  4244 ;;		Unchanged: 0/0
  4245 ;; Data sizes:     COMMON   BANK0   BANK1   BANK3   BANK2
  4246 ;;      Params:         0       0       0       0       0
  4247 ;;      Locals:         0       0       0       0       0
  4248 ;;      Temps:          0       2       0       0       0
  4249 ;;      Totals:         0       2       0       0       0
  4250 ;;Total ram usage:        2 bytes
  4251 ;; Hardware stack levels used: 1
  4252 ;; Hardware stack levels required when called: 2
  4253 ;; This function calls:
  4254 ;;		___awdiv
  4255 ;;		___awmod
  4256 ;;		_clcd_print
  4257 ;;		_clcd_putch
  4258 ;;		_clear_screen
  4259 ;; This function is called by:
  4260 ;;		_main
  4261 ;; This function uses a non-reentrant model
  4262 ;;
  4263                           
  4264     0703                     _display_preheat:	
  4265                           ;psect for function _display_preheat
  4266                           
  4267     0703                     l2473:	
  4268                           ;incstack = 0
  4269                           ; Regs used in _display_preheat: [wreg-fsr0h+status,2+status,0+pclath+btemp1+cstack]
  4270                           
  4271                           
  4272                           ;micro_oven.c: 239:     clcd_print("PRE-HEATING", (0x80 + 2));
  4273     0703  3089               	movlw	low (STR_20| (0+32768))
  4274     0704  00F6               	movwf	clcd_print@str
  4275     0705  3084               	movlw	high (STR_20| (0+32768))
  4276     0706  00F7               	movwf	clcd_print@str+1
  4277     0707  3082               	movlw	130
  4278     0708  00F8               	movwf	clcd_print@addr
  4279     0709  120A  158A  262A  120A  118A  	fcall	_clcd_print
  4280                           
  4281                           ;micro_oven.c: 240:     clcd_print("TIME Rem :", (0x90 + 0));
  4282     070E  30AC               	movlw	low (STR_21| (0+32768))
  4283     070F  00F6               	movwf	clcd_print@str
  4284     0710  3084               	movlw	high (STR_21| (0+32768))
  4285     0711  00F7               	movwf	clcd_print@str+1
  4286     0712  3090               	movlw	144
  4287     0713  00F8               	movwf	clcd_print@addr
  4288     0714  120A  158A  262A  120A  118A  	fcall	_clcd_print
  4289     0719                     l2475:
  4290                           
  4291                           ;micro_oven.c: 242:     clcd_putch(pre_heat / 10 + '0', (0x90 + 10));
  4292     0719  309A               	movlw	154
  4293     071A  1283               	bcf	3,5	;RP0=0, select bank0
  4294     071B  1303               	bcf	3,6	;RP1=0, select bank0
  4295     071C  00A5               	movwf	clcd_putch@addr
  4296     071D  300A               	movlw	10
  4297     071E  00F2               	movwf	___awdiv@divisor
  4298     071F  3000               	movlw	0
  4299     0720  00F3               	movwf	___awdiv@divisor+1
  4300     0721  083A               	movf	_pre_heat,w
  4301     0722  00A7               	movwf	??_display_preheat
  4302     0723  01A8               	clrf	??_display_preheat+1
  4303     0724  0827               	movf	??_display_preheat,w
  4304     0725  00F4               	movwf	___awdiv@dividend
  4305     0726  0828               	movf	??_display_preheat+1,w
  4306     0727  00F5               	movwf	___awdiv@dividend+1
  4307     0728  120A  118A  2770  120A  118A  	fcall	___awdiv
  4308     072D  0872               	movf	?___awdiv,w
  4309     072E  3E30               	addlw	48
  4310     072F  120A  158A  25BE  120A  118A  	fcall	_clcd_putch
  4311     0734                     l2477:
  4312                           
  4313                           ;micro_oven.c: 243:     clcd_putch(pre_heat % 10 + '0', (0x90 + 11));
  4314     0734  309B               	movlw	155
  4315     0735  1283               	bcf	3,5	;RP0=0, select bank0
  4316     0736  1303               	bcf	3,6	;RP1=0, select bank0
  4317     0737  00A5               	movwf	clcd_putch@addr
  4318     0738  300A               	movlw	10
  4319     0739  00F2               	movwf	___awmod@divisor
  4320     073A  3000               	movlw	0
  4321     073B  00F3               	movwf	___awmod@divisor+1
  4322     073C  083A               	movf	_pre_heat,w
  4323     073D  00A7               	movwf	??_display_preheat
  4324     073E  01A8               	clrf	??_display_preheat+1
  4325     073F  0827               	movf	??_display_preheat,w
  4326     0740  00F4               	movwf	___awmod@dividend
  4327     0741  0828               	movf	??_display_preheat+1,w
  4328     0742  00F5               	movwf	___awmod@dividend+1
  4329     0743  120A  158A  2746  120A  118A  	fcall	___awmod
  4330     0748  0872               	movf	?___awmod,w
  4331     0749  3E30               	addlw	48
  4332     074A  120A  158A  25BE  120A  118A  	fcall	_clcd_putch
  4333     074F                     l2479:
  4334                           
  4335                           ;micro_oven.c: 244:     clcd_putch('s', (0x90 + 12));
  4336     074F  309C               	movlw	156
  4337     0750  1283               	bcf	3,5	;RP0=0, select bank0
  4338     0751  1303               	bcf	3,6	;RP1=0, select bank0
  4339     0752  00A5               	movwf	clcd_putch@addr
  4340     0753  3073               	movlw	115
  4341     0754  120A  158A  25BE  120A  118A  	fcall	_clcd_putch
  4342     0759                     l2481:
  4343                           
  4344                           ;micro_oven.c: 246:    if (pre_heat == 0)
  4345     0759  1283               	bcf	3,5	;RP0=0, select bank0
  4346     075A  1303               	bcf	3,6	;RP1=0, select bank0
  4347     075B  083A               	movf	_pre_heat,w
  4348     075C  1D03               	btfss	3,2
  4349     075D  2F5F               	goto	u2571
  4350     075E  2F60               	goto	u2570
  4351     075F                     u2571:
  4352     075F  2F6F               	goto	l294
  4353     0760                     u2570:
  4354     0760                     l2483:
  4355                           
  4356                           ;micro_oven.c: 247: {;micro_oven.c: 248:     TMR2ON = 0;
  4357     0760  1112               	bcf	18,2	;volatile
  4358                           
  4359                           ;micro_oven.c: 249:     TMR2IF = 0;
  4360     0761  108C               	bcf	12,1	;volatile
  4361     0762                     l2485:
  4362                           
  4363                           ;micro_oven.c: 251:     sec = 0;
  4364     0762  01BC               	clrf	_sec
  4365                           
  4366                           ;micro_oven.c: 252:     min = 0;
  4367     0763  01BB               	clrf	_min
  4368     0764                     l2487:
  4369                           
  4370                           ;micro_oven.c: 253:     clear_screen();
  4371     0764  120A  158A  25AD  120A  118A  	fcall	_clear_screen
  4372     0769                     l2489:
  4373                           
  4374                           ;micro_oven.c: 254:     screen_flag = 0x30;
  4375     0769  3030               	movlw	48
  4376     076A  1283               	bcf	3,5	;RP0=0, select bank0
  4377     076B  1303               	bcf	3,6	;RP1=0, select bank0
  4378     076C  00BE               	movwf	_screen_flag
  4379     076D                     l2491:
  4380                           
  4381                           ;micro_oven.c: 255:     reset_flag = 0x31;
  4382     076D  3031               	movlw	49
  4383     076E  00BD               	movwf	_reset_flag
  4384     076F                     l294:
  4385     076F  0008               	return
  4386     0770                     __end_of_display_preheat:
  4387                           
  4388                           	psect	text17
  4389     0DAD                     __ptext17:	
  4390 ;; *************** function _clear_screen *****************
  4391 ;; Defined at:
  4392 ;;		line 72 in file "clcd.c"
  4393 ;; Parameters:    Size  Location     Type
  4394 ;;		None
  4395 ;; Auto vars:     Size  Location     Type
  4396 ;;		None
  4397 ;; Return value:  Size  Location     Type
  4398 ;;                  1    wreg      void 
  4399 ;; Registers used:
  4400 ;;		wreg, status,2, status,0, pclath, cstack
  4401 ;; Tracked objects:
  4402 ;;		On entry : 0/0
  4403 ;;		On exit  : 0/0
  4404 ;;		Unchanged: 0/0
  4405 ;; Data sizes:     COMMON   BANK0   BANK1   BANK3   BANK2
  4406 ;;      Params:         0       0       0       0       0
  4407 ;;      Locals:         0       0       0       0       0
  4408 ;;      Temps:          2       0       0       0       0
  4409 ;;      Totals:         2       0       0       0       0
  4410 ;;Total ram usage:        2 bytes
  4411 ;; Hardware stack levels used: 1
  4412 ;; Hardware stack levels required when called: 1
  4413 ;; This function calls:
  4414 ;;		_clcd_write
  4415 ;; This function is called by:
  4416 ;;		_main
  4417 ;;		_set_time
  4418 ;;		_set_temp
  4419 ;;		_display_time
  4420 ;;		_display_preheat
  4421 ;; This function uses a non-reentrant model
  4422 ;;
  4423                           
  4424     0DAD                     _clear_screen:	
  4425                           ;psect for function _clear_screen
  4426                           
  4427     0DAD                     l1615:	
  4428                           ;incstack = 0
  4429                           ; Regs used in _clear_screen: [wreg+status,2+status,0+pclath+cstack]
  4430                           
  4431                           
  4432                           ;clcd.c: 74:     clcd_write(0x01, 0);
  4433     0DAD  01F2               	clrf	clcd_write@mode
  4434     0DAE  3001               	movlw	1
  4435     0DAF  120A  158A  2659  120A  158A  	fcall	_clcd_write
  4436     0DB4                     l1617:
  4437                           
  4438                           ;clcd.c: 75:     _delay((unsigned long)((500)*(20000000/4000000.0)));
  4439     0DB4  3004               	movlw	4
  4440     0DB5  00F7               	movwf	??_clear_screen+1
  4441     0DB6  303D               	movlw	61
  4442     0DB7  00F6               	movwf	??_clear_screen
  4443     0DB8                     u3097:
  4444     0DB8  0BF6               	decfsz	??_clear_screen,f
  4445     0DB9  2DB8               	goto	u3097
  4446     0DBA  0BF7               	decfsz	??_clear_screen+1,f
  4447     0DBB  2DB8               	goto	u3097
  4448     0DBC  2DBD               	nop2
  4449     0DBD                     l35:
  4450     0DBD  0008               	return
  4451     0DBE                     __end_of_clear_screen:
  4452                           
  4453                           	psect	text18
  4454     0F46                     __ptext18:	
  4455 ;; *************** function ___awmod *****************
  4456 ;; Defined at:
  4457 ;;		line 5 in file "C:\Program Files\Microchip\xc8\v3.10\pic\sources\c99\common\awmod.c"
  4458 ;; Parameters:    Size  Location     Type
  4459 ;;  divisor         2    2[COMMON] int 
  4460 ;;  dividend        2    4[COMMON] int 
  4461 ;; Auto vars:     Size  Location     Type
  4462 ;;  sign            1    7[COMMON] unsigned char 
  4463 ;;  counter         1    6[COMMON] unsigned char 
  4464 ;; Return value:  Size  Location     Type
  4465 ;;                  2    2[COMMON] int 
  4466 ;; Registers used:
  4467 ;;		wreg, status,2, status,0
  4468 ;; Tracked objects:
  4469 ;;		On entry : 0/0
  4470 ;;		On exit  : 0/0
  4471 ;;		Unchanged: 0/0
  4472 ;; Data sizes:     COMMON   BANK0   BANK1   BANK3   BANK2
  4473 ;;      Params:         4       0       0       0       0
  4474 ;;      Locals:         2       0       0       0       0
  4475 ;;      Temps:          0       0       0       0       0
  4476 ;;      Totals:         6       0       0       0       0
  4477 ;;Total ram usage:        6 bytes
  4478 ;; Hardware stack levels used: 1
  4479 ;; Hardware stack levels required when called: 1
  4480 ;; This function calls:
  4481 ;;		Nothing
  4482 ;; This function is called by:
  4483 ;;		_display_preheat
  4484 ;;		_set_time
  4485 ;;		_display_time
  4486 ;; This function uses a non-reentrant model
  4487 ;;
  4488                           
  4489     0F46                     ___awmod:	
  4490                           ;psect for function ___awmod
  4491                           
  4492     0F46                     l1795:	
  4493                           ;incstack = 0
  4494                           ; Regs used in ___awmod: [wreg+status,2+status,0]
  4495                           
  4496     0F46  01F7               	clrf	___awmod@sign
  4497     0F47                     l1797:
  4498     0F47  1FF5               	btfss	___awmod@dividend+1,7
  4499     0F48  2F4A               	goto	u1381
  4500     0F49  2F4B               	goto	u1380
  4501     0F4A                     u1381:
  4502     0F4A  2F52               	goto	l1803
  4503     0F4B                     u1380:
  4504     0F4B                     l1799:
  4505     0F4B  09F4               	comf	___awmod@dividend,f
  4506     0F4C  09F5               	comf	___awmod@dividend+1,f
  4507     0F4D  0AF4               	incf	___awmod@dividend,f
  4508     0F4E  1903               	skipnz
  4509     0F4F  0AF5               	incf	___awmod@dividend+1,f
  4510     0F50                     l1801:
  4511     0F50  3001               	movlw	1
  4512     0F51  00F7               	movwf	___awmod@sign
  4513     0F52                     l1803:
  4514     0F52  1FF3               	btfss	___awmod@divisor+1,7
  4515     0F53  2F55               	goto	u1391
  4516     0F54  2F56               	goto	u1390
  4517     0F55                     u1391:
  4518     0F55  2F5B               	goto	l1807
  4519     0F56                     u1390:
  4520     0F56                     l1805:
  4521     0F56  09F2               	comf	___awmod@divisor,f
  4522     0F57  09F3               	comf	___awmod@divisor+1,f
  4523     0F58  0AF2               	incf	___awmod@divisor,f
  4524     0F59  1903               	skipnz
  4525     0F5A  0AF3               	incf	___awmod@divisor+1,f
  4526     0F5B                     l1807:
  4527     0F5B  0872               	movf	___awmod@divisor,w
  4528     0F5C  0473               	iorwf	___awmod@divisor+1,w
  4529     0F5D  1903               	btfsc	3,2
  4530     0F5E  2F60               	goto	u1401
  4531     0F5F  2F61               	goto	u1400
  4532     0F60                     u1401:
  4533     0F60  2F8E               	goto	l1825
  4534     0F61                     u1400:
  4535     0F61                     l1809:
  4536     0F61  3001               	movlw	1
  4537     0F62  00F6               	movwf	___awmod@counter
  4538     0F63  2F6D               	goto	l1815
  4539     0F64                     l1811:
  4540     0F64  3001               	movlw	1
  4541     0F65                     u1415:
  4542     0F65  1003               	clrc
  4543     0F66  0DF2               	rlf	___awmod@divisor,f
  4544     0F67  0DF3               	rlf	___awmod@divisor+1,f
  4545     0F68  3EFF               	addlw	-1
  4546     0F69  1D03               	skipz
  4547     0F6A  2F65               	goto	u1415
  4548     0F6B                     l1813:
  4549     0F6B  3001               	movlw	1
  4550     0F6C  07F6               	addwf	___awmod@counter,f
  4551     0F6D                     l1815:
  4552     0F6D  1FF3               	btfss	___awmod@divisor+1,7
  4553     0F6E  2F70               	goto	u1421
  4554     0F6F  2F71               	goto	u1420
  4555     0F70                     u1421:
  4556     0F70  2F64               	goto	l1811
  4557     0F71                     u1420:
  4558     0F71                     l1817:
  4559     0F71  0873               	movf	___awmod@divisor+1,w
  4560     0F72  0275               	subwf	___awmod@dividend+1,w
  4561     0F73  1D03               	skipz
  4562     0F74  2F77               	goto	u1435
  4563     0F75  0872               	movf	___awmod@divisor,w
  4564     0F76  0274               	subwf	___awmod@dividend,w
  4565     0F77                     u1435:
  4566     0F77  1C03               	skipc
  4567     0F78  2F7A               	goto	u1431
  4568     0F79  2F7B               	goto	u1430
  4569     0F7A                     u1431:
  4570     0F7A  2F81               	goto	l1821
  4571     0F7B                     u1430:
  4572     0F7B                     l1819:
  4573     0F7B  0872               	movf	___awmod@divisor,w
  4574     0F7C  02F4               	subwf	___awmod@dividend,f
  4575     0F7D  0873               	movf	___awmod@divisor+1,w
  4576     0F7E  1C03               	skipc
  4577     0F7F  03F5               	decf	___awmod@dividend+1,f
  4578     0F80  02F5               	subwf	___awmod@dividend+1,f
  4579     0F81                     l1821:
  4580     0F81  3001               	movlw	1
  4581     0F82                     u1445:
  4582     0F82  1003               	clrc
  4583     0F83  0CF3               	rrf	___awmod@divisor+1,f
  4584     0F84  0CF2               	rrf	___awmod@divisor,f
  4585     0F85  3EFF               	addlw	-1
  4586     0F86  1D03               	skipz
  4587     0F87  2F82               	goto	u1445
  4588     0F88                     l1823:
  4589     0F88  3001               	movlw	1
  4590     0F89  02F6               	subwf	___awmod@counter,f
  4591     0F8A  1D03               	btfss	3,2
  4592     0F8B  2F8D               	goto	u1451
  4593     0F8C  2F8E               	goto	u1450
  4594     0F8D                     u1451:
  4595     0F8D  2F71               	goto	l1817
  4596     0F8E                     u1450:
  4597     0F8E                     l1825:
  4598     0F8E  0877               	movf	___awmod@sign,w
  4599     0F8F  1903               	btfsc	3,2
  4600     0F90  2F92               	goto	u1461
  4601     0F91  2F93               	goto	u1460
  4602     0F92                     u1461:
  4603     0F92  2F98               	goto	l1829
  4604     0F93                     u1460:
  4605     0F93                     l1827:
  4606     0F93  09F4               	comf	___awmod@dividend,f
  4607     0F94  09F5               	comf	___awmod@dividend+1,f
  4608     0F95  0AF4               	incf	___awmod@dividend,f
  4609     0F96  1903               	skipnz
  4610     0F97  0AF5               	incf	___awmod@dividend+1,f
  4611     0F98                     l1829:
  4612     0F98  0875               	movf	___awmod@dividend+1,w
  4613     0F99  00F3               	movwf	?___awmod+1
  4614     0F9A  0874               	movf	___awmod@dividend,w
  4615     0F9B  00F2               	movwf	?___awmod
  4616     0F9C                     l567:
  4617     0F9C  0008               	return
  4618     0F9D                     __end_of___awmod:
  4619                           
  4620                           	psect	text19
  4621     0770                     __ptext19:	
  4622 ;; *************** function ___awdiv *****************
  4623 ;; Defined at:
  4624 ;;		line 5 in file "C:\Program Files\Microchip\xc8\v3.10\pic\sources\c99\common\awdiv.c"
  4625 ;; Parameters:    Size  Location     Type
  4626 ;;  divisor         2    2[COMMON] int 
  4627 ;;  dividend        2    4[COMMON] int 
  4628 ;; Auto vars:     Size  Location     Type
  4629 ;;  quotient        2    2[BANK0 ] int 
  4630 ;;  sign            1    1[BANK0 ] unsigned char 
  4631 ;;  counter         1    0[BANK0 ] unsigned char 
  4632 ;; Return value:  Size  Location     Type
  4633 ;;                  2    2[COMMON] int 
  4634 ;; Registers used:
  4635 ;;		wreg, status,2, status,0
  4636 ;; Tracked objects:
  4637 ;;		On entry : 0/0
  4638 ;;		On exit  : 0/0
  4639 ;;		Unchanged: 0/0
  4640 ;; Data sizes:     COMMON   BANK0   BANK1   BANK3   BANK2
  4641 ;;      Params:         4       0       0       0       0
  4642 ;;      Locals:         0       4       0       0       0
  4643 ;;      Temps:          0       0       0       0       0
  4644 ;;      Totals:         4       4       0       0       0
  4645 ;;Total ram usage:        8 bytes
  4646 ;; Hardware stack levels used: 1
  4647 ;; Hardware stack levels required when called: 1
  4648 ;; This function calls:
  4649 ;;		Nothing
  4650 ;; This function is called by:
  4651 ;;		_display_preheat
  4652 ;;		_set_time
  4653 ;;		_display_time
  4654 ;; This function uses a non-reentrant model
  4655 ;;
  4656                           
  4657     0770                     ___awdiv:	
  4658                           ;psect for function ___awdiv
  4659                           
  4660     0770                     l2285:	
  4661                           ;incstack = 0
  4662                           ; Regs used in ___awdiv: [wreg+status,2+status,0]
  4663                           
  4664     0770  1283               	bcf	3,5	;RP0=0, select bank0
  4665     0771  1303               	bcf	3,6	;RP1=0, select bank0
  4666     0772  01A1               	clrf	___awdiv@sign
  4667     0773                     l2287:
  4668     0773  1FF3               	btfss	___awdiv@divisor+1,7
  4669     0774  2F76               	goto	u2151
  4670     0775  2F77               	goto	u2150
  4671     0776                     u2151:
  4672     0776  2F7E               	goto	l2293
  4673     0777                     u2150:
  4674     0777                     l2289:
  4675     0777  09F2               	comf	___awdiv@divisor,f
  4676     0778  09F3               	comf	___awdiv@divisor+1,f
  4677     0779  0AF2               	incf	___awdiv@divisor,f
  4678     077A  1903               	skipnz
  4679     077B  0AF3               	incf	___awdiv@divisor+1,f
  4680     077C                     l2291:
  4681     077C  3001               	movlw	1
  4682     077D  00A1               	movwf	___awdiv@sign
  4683     077E                     l2293:
  4684     077E  1FF5               	btfss	___awdiv@dividend+1,7
  4685     077F  2F81               	goto	u2161
  4686     0780  2F82               	goto	u2160
  4687     0781                     u2161:
  4688     0781  2F89               	goto	l2299
  4689     0782                     u2160:
  4690     0782                     l2295:
  4691     0782  09F4               	comf	___awdiv@dividend,f
  4692     0783  09F5               	comf	___awdiv@dividend+1,f
  4693     0784  0AF4               	incf	___awdiv@dividend,f
  4694     0785  1903               	skipnz
  4695     0786  0AF5               	incf	___awdiv@dividend+1,f
  4696     0787                     l2297:
  4697     0787  3001               	movlw	1
  4698     0788  06A1               	xorwf	___awdiv@sign,f
  4699     0789                     l2299:
  4700     0789  01A2               	clrf	___awdiv@quotient
  4701     078A  01A3               	clrf	___awdiv@quotient+1
  4702     078B                     l2301:
  4703     078B  0872               	movf	___awdiv@divisor,w
  4704     078C  0473               	iorwf	___awdiv@divisor+1,w
  4705     078D  1903               	btfsc	3,2
  4706     078E  2F90               	goto	u2171
  4707     078F  2F91               	goto	u2170
  4708     0790                     u2171:
  4709     0790  2FC6               	goto	l2321
  4710     0791                     u2170:
  4711     0791                     l2303:
  4712     0791  3001               	movlw	1
  4713     0792  00A0               	movwf	___awdiv@counter
  4714     0793  2F9D               	goto	l2309
  4715     0794                     l2305:
  4716     0794  3001               	movlw	1
  4717     0795                     u2185:
  4718     0795  1003               	clrc
  4719     0796  0DF2               	rlf	___awdiv@divisor,f
  4720     0797  0DF3               	rlf	___awdiv@divisor+1,f
  4721     0798  3EFF               	addlw	-1
  4722     0799  1D03               	skipz
  4723     079A  2F95               	goto	u2185
  4724     079B                     l2307:
  4725     079B  3001               	movlw	1
  4726     079C  07A0               	addwf	___awdiv@counter,f
  4727     079D                     l2309:
  4728     079D  1FF3               	btfss	___awdiv@divisor+1,7
  4729     079E  2FA0               	goto	u2191
  4730     079F  2FA1               	goto	u2190
  4731     07A0                     u2191:
  4732     07A0  2F94               	goto	l2305
  4733     07A1                     u2190:
  4734     07A1                     l2311:
  4735     07A1  3001               	movlw	1
  4736     07A2                     u2205:
  4737     07A2  1003               	clrc
  4738     07A3  0DA2               	rlf	___awdiv@quotient,f
  4739     07A4  0DA3               	rlf	___awdiv@quotient+1,f
  4740     07A5  3EFF               	addlw	-1
  4741     07A6  1D03               	skipz
  4742     07A7  2FA2               	goto	u2205
  4743     07A8  0873               	movf	___awdiv@divisor+1,w
  4744     07A9  0275               	subwf	___awdiv@dividend+1,w
  4745     07AA  1D03               	skipz
  4746     07AB  2FAE               	goto	u2215
  4747     07AC  0872               	movf	___awdiv@divisor,w
  4748     07AD  0274               	subwf	___awdiv@dividend,w
  4749     07AE                     u2215:
  4750     07AE  1C03               	skipc
  4751     07AF  2FB1               	goto	u2211
  4752     07B0  2FB2               	goto	u2210
  4753     07B1                     u2211:
  4754     07B1  2FB9               	goto	l2317
  4755     07B2                     u2210:
  4756     07B2                     l2313:
  4757     07B2  0872               	movf	___awdiv@divisor,w
  4758     07B3  02F4               	subwf	___awdiv@dividend,f
  4759     07B4  0873               	movf	___awdiv@divisor+1,w
  4760     07B5  1C03               	skipc
  4761     07B6  03F5               	decf	___awdiv@dividend+1,f
  4762     07B7  02F5               	subwf	___awdiv@dividend+1,f
  4763     07B8                     l2315:
  4764     07B8  1422               	bsf	___awdiv@quotient,0
  4765     07B9                     l2317:
  4766     07B9  3001               	movlw	1
  4767     07BA                     u2225:
  4768     07BA  1003               	clrc
  4769     07BB  0CF3               	rrf	___awdiv@divisor+1,f
  4770     07BC  0CF2               	rrf	___awdiv@divisor,f
  4771     07BD  3EFF               	addlw	-1
  4772     07BE  1D03               	skipz
  4773     07BF  2FBA               	goto	u2225
  4774     07C0                     l2319:
  4775     07C0  3001               	movlw	1
  4776     07C1  02A0               	subwf	___awdiv@counter,f
  4777     07C2  1D03               	btfss	3,2
  4778     07C3  2FC5               	goto	u2231
  4779     07C4  2FC6               	goto	u2230
  4780     07C5                     u2231:
  4781     07C5  2FA1               	goto	l2311
  4782     07C6                     u2230:
  4783     07C6                     l2321:
  4784     07C6  0821               	movf	___awdiv@sign,w
  4785     07C7  1903               	btfsc	3,2
  4786     07C8  2FCA               	goto	u2241
  4787     07C9  2FCB               	goto	u2240
  4788     07CA                     u2241:
  4789     07CA  2FD0               	goto	l2325
  4790     07CB                     u2240:
  4791     07CB                     l2323:
  4792     07CB  09A2               	comf	___awdiv@quotient,f
  4793     07CC  09A3               	comf	___awdiv@quotient+1,f
  4794     07CD  0AA2               	incf	___awdiv@quotient,f
  4795     07CE  1903               	skipnz
  4796     07CF  0AA3               	incf	___awdiv@quotient+1,f
  4797     07D0                     l2325:
  4798     07D0  0823               	movf	___awdiv@quotient+1,w
  4799     07D1  00F3               	movwf	?___awdiv+1
  4800     07D2  0822               	movf	___awdiv@quotient,w
  4801     07D3  00F2               	movwf	?___awdiv
  4802     07D4                     l554:
  4803     07D4  0008               	return
  4804     07D5                     __end_of___awdiv:
  4805                           
  4806                           	psect	text20
  4807     0695                     __ptext20:	
  4808 ;; *************** function _display_power_screen *****************
  4809 ;; Defined at:
  4810 ;;		line 12 in file "micro_oven.c"
  4811 ;; Parameters:    Size  Location     Type
  4812 ;;		None
  4813 ;; Auto vars:     Size  Location     Type
  4814 ;;  i               1   11[BANK0 ] unsigned char 
  4815 ;;  i               1   10[BANK0 ] unsigned char 
  4816 ;; Return value:  Size  Location     Type
  4817 ;;                  1    wreg      void 
  4818 ;; Registers used:
  4819 ;;		wreg, fsr0l, fsr0h, status,2, status,0, pclath, btemp1, cstack
  4820 ;; Tracked objects:
  4821 ;;		On entry : 0/0
  4822 ;;		On exit  : 0/0
  4823 ;;		Unchanged: 0/0
  4824 ;; Data sizes:     COMMON   BANK0   BANK1   BANK3   BANK2
  4825 ;;      Params:         0       0       0       0       0
  4826 ;;      Locals:         0       2       0       0       0
  4827 ;;      Temps:          0       3       0       0       0
  4828 ;;      Totals:         0       5       0       0       0
  4829 ;;Total ram usage:        5 bytes
  4830 ;; Hardware stack levels used: 1
  4831 ;; Hardware stack levels required when called: 3
  4832 ;; This function calls:
  4833 ;;		_clcd_print
  4834 ;;		_clcd_putch
  4835 ;; This function is called by:
  4836 ;;		_main
  4837 ;; This function uses a non-reentrant model
  4838 ;;
  4839                           
  4840     0695                     _display_power_screen:	
  4841                           ;psect for function _display_power_screen
  4842                           
  4843     0695                     l1921:	
  4844                           ;incstack = 0
  4845                           ; Regs used in _display_power_screen: [wreg-fsr0h+status,2+status,0+pclath+btemp1+cstack
      +                          ]
  4846                           
  4847                           
  4848                           ;micro_oven.c: 14:     for (unsigned char i = 0; i < 16; i++)
  4849     0695  1283               	bcf	3,5	;RP0=0, select bank0
  4850     0696  1303               	bcf	3,6	;RP1=0, select bank0
  4851     0697  01AA               	clrf	display_power_screen@i
  4852     0698                     l1927:
  4853                           
  4854                           ;micro_oven.c: 15:     {;micro_oven.c: 16:         clcd_putch(0xFF, (0x80 + i));
  4855     0698  082A               	movf	display_power_screen@i,w
  4856     0699  3E80               	addlw	128
  4857     069A  00A5               	movwf	clcd_putch@addr
  4858     069B  30FF               	movlw	255
  4859     069C  120A  158A  25BE  120A  118A  	fcall	_clcd_putch
  4860     06A1                     l1929:
  4861                           
  4862                           ;micro_oven.c: 17:         _delay((unsigned long)((100)*(20000000/4000.0)));
  4863     06A1  3003               	movlw	3
  4864     06A2  1283               	bcf	3,5	;RP0=0, select bank0
  4865     06A3  1303               	bcf	3,6	;RP1=0, select bank0
  4866     06A4  00A9               	movwf	??_display_power_screen+2
  4867     06A5  308A               	movlw	138
  4868     06A6  00A8               	movwf	??_display_power_screen+1
  4869     06A7  3055               	movlw	85
  4870     06A8  00A7               	movwf	??_display_power_screen
  4871     06A9                     u3107:
  4872     06A9  0BA7               	decfsz	??_display_power_screen,f
  4873     06AA  2EA9               	goto	u3107
  4874     06AB  0BA8               	decfsz	??_display_power_screen+1,f
  4875     06AC  2EA9               	goto	u3107
  4876     06AD  0BA9               	decfsz	??_display_power_screen+2,f
  4877     06AE  2EA9               	goto	u3107
  4878     06AF                     l1931:
  4879                           
  4880                           ;micro_oven.c: 18:     }
  4881     06AF  3001               	movlw	1
  4882     06B0  1283               	bcf	3,5	;RP0=0, select bank0
  4883     06B1  1303               	bcf	3,6	;RP1=0, select bank0
  4884     06B2  07AA               	addwf	display_power_screen@i,f
  4885     06B3                     l1933:
  4886     06B3  3010               	movlw	16
  4887     06B4  022A               	subwf	display_power_screen@i,w
  4888     06B5  1C03               	skipc
  4889     06B6  2EB8               	goto	u1641
  4890     06B7  2EB9               	goto	u1640
  4891     06B8                     u1641:
  4892     06B8  2E98               	goto	l1927
  4893     06B9                     u1640:
  4894     06B9                     l1935:
  4895                           
  4896                           ;micro_oven.c: 19:     clcd_print("Powering ON", (0xC0 + 3));
  4897     06B9  3095               	movlw	low (STR_2| (0+32768))
  4898     06BA  00F6               	movwf	clcd_print@str
  4899     06BB  3084               	movlw	high (STR_2| (0+32768))
  4900     06BC  00F7               	movwf	clcd_print@str+1
  4901     06BD  30C3               	movlw	195
  4902     06BE  00F8               	movwf	clcd_print@addr
  4903     06BF  120A  158A  262A  120A  118A  	fcall	_clcd_print
  4904                           
  4905                           ;micro_oven.c: 20:     clcd_print("Microwave Oven", (0x90 + 2));
  4906     06C4  3051               	movlw	low (STR_3| (0+32768))
  4907     06C5  00F6               	movwf	clcd_print@str
  4908     06C6  3084               	movlw	high (STR_3| (0+32768))
  4909     06C7  00F7               	movwf	clcd_print@str+1
  4910     06C8  3092               	movlw	146
  4911     06C9  00F8               	movwf	clcd_print@addr
  4912     06CA  120A  158A  262A  120A  118A  	fcall	_clcd_print
  4913     06CF                     l1937:
  4914                           
  4915                           ;micro_oven.c: 21:     for (unsigned char i = 0; i < 16; i++)
  4916     06CF  1283               	bcf	3,5	;RP0=0, select bank0
  4917     06D0  1303               	bcf	3,6	;RP1=0, select bank0
  4918     06D1  01AB               	clrf	display_power_screen@i_160
  4919     06D2                     l1943:
  4920                           
  4921                           ;micro_oven.c: 22:     {;micro_oven.c: 23:         clcd_putch(0xFF, (0xD0 + i));
  4922     06D2  082B               	movf	display_power_screen@i_160,w
  4923     06D3  3ED0               	addlw	208
  4924     06D4  00A5               	movwf	clcd_putch@addr
  4925     06D5  30FF               	movlw	255
  4926     06D6  120A  158A  25BE  120A  118A  	fcall	_clcd_putch
  4927     06DB                     l1945:
  4928                           
  4929                           ;micro_oven.c: 24:         _delay((unsigned long)((100)*(20000000/4000.0)));
  4930     06DB  3003               	movlw	3
  4931     06DC  1283               	bcf	3,5	;RP0=0, select bank0
  4932     06DD  1303               	bcf	3,6	;RP1=0, select bank0
  4933     06DE  00A9               	movwf	??_display_power_screen+2
  4934     06DF  308A               	movlw	138
  4935     06E0  00A8               	movwf	??_display_power_screen+1
  4936     06E1  3055               	movlw	85
  4937     06E2  00A7               	movwf	??_display_power_screen
  4938     06E3                     u3117:
  4939     06E3  0BA7               	decfsz	??_display_power_screen,f
  4940     06E4  2EE3               	goto	u3117
  4941     06E5  0BA8               	decfsz	??_display_power_screen+1,f
  4942     06E6  2EE3               	goto	u3117
  4943     06E7  0BA9               	decfsz	??_display_power_screen+2,f
  4944     06E8  2EE3               	goto	u3117
  4945     06E9                     l1947:
  4946                           
  4947                           ;micro_oven.c: 25:     }
  4948     06E9  3001               	movlw	1
  4949     06EA  1283               	bcf	3,5	;RP0=0, select bank0
  4950     06EB  1303               	bcf	3,6	;RP1=0, select bank0
  4951     06EC  07AB               	addwf	display_power_screen@i_160,f
  4952     06ED                     l1949:
  4953     06ED  3010               	movlw	16
  4954     06EE  022B               	subwf	display_power_screen@i_160,w
  4955     06EF  1C03               	skipc
  4956     06F0  2EF2               	goto	u1651
  4957     06F1  2EF3               	goto	u1650
  4958     06F2                     u1651:
  4959     06F2  2ED2               	goto	l1943
  4960     06F3                     u1650:
  4961     06F3                     l1951:
  4962                           
  4963                           ;micro_oven.c: 26:     _delay((unsigned long)((1000)*(20000000/4000.0)));
  4964     06F3  301A               	movlw	26
  4965     06F4  1283               	bcf	3,5	;RP0=0, select bank0
  4966     06F5  1303               	bcf	3,6	;RP1=0, select bank0
  4967     06F6  00A9               	movwf	??_display_power_screen+2
  4968     06F7  305E               	movlw	94
  4969     06F8  00A8               	movwf	??_display_power_screen+1
  4970     06F9  306D               	movlw	109
  4971     06FA  00A7               	movwf	??_display_power_screen
  4972     06FB                     u3127:
  4973     06FB  0BA7               	decfsz	??_display_power_screen,f
  4974     06FC  2EFB               	goto	u3127
  4975     06FD  0BA8               	decfsz	??_display_power_screen+1,f
  4976     06FE  2EFB               	goto	u3127
  4977     06FF  0BA9               	decfsz	??_display_power_screen+2,f
  4978     0700  2EFB               	goto	u3127
  4979     0701  2F02               	nop2
  4980     0702                     l230:
  4981     0702  0008               	return
  4982     0703                     __end_of_display_power_screen:
  4983                           
  4984                           	psect	text21
  4985     0DBE                     __ptext21:	
  4986 ;; *************** function _clcd_putch *****************
  4987 ;; Defined at:
  4988 ;;		line 56 in file "clcd.c"
  4989 ;; Parameters:    Size  Location     Type
  4990 ;;  data            1    wreg     const unsigned char 
  4991 ;;  addr            1    5[BANK0 ] unsigned char 
  4992 ;; Auto vars:     Size  Location     Type
  4993 ;;  data            1    6[BANK0 ] const unsigned char 
  4994 ;; Return value:  Size  Location     Type
  4995 ;;                  1    wreg      void 
  4996 ;; Registers used:
  4997 ;;		wreg, status,2, status,0, pclath, cstack
  4998 ;; Tracked objects:
  4999 ;;		On entry : 0/0
  5000 ;;		On exit  : 0/0
  5001 ;;		Unchanged: 0/0
  5002 ;; Data sizes:     COMMON   BANK0   BANK1   BANK3   BANK2
  5003 ;;      Params:         0       1       0       0       0
  5004 ;;      Locals:         0       1       0       0       0
  5005 ;;      Temps:          0       0       0       0       0
  5006 ;;      Totals:         0       2       0       0       0
  5007 ;;Total ram usage:        2 bytes
  5008 ;; Hardware stack levels used: 1
  5009 ;; Hardware stack levels required when called: 1
  5010 ;; This function calls:
  5011 ;;		_clcd_write
  5012 ;; This function is called by:
  5013 ;;		_display_power_screen
  5014 ;;		_set_time
  5015 ;;		_set_temp
  5016 ;;		_display_time
  5017 ;;		_display_preheat
  5018 ;; This function uses a non-reentrant model
  5019 ;;
  5020                           
  5021     0DBE                     _clcd_putch:	
  5022                           ;psect for function _clcd_putch
  5023                           
  5024                           
  5025                           ;incstack = 0
  5026                           ; Regs used in _clcd_putch: [wreg+status,2+status,0+pclath+cstack]
  5027                           ;clcd_putch@data stored from wreg
  5028     0DBE  1283               	bcf	3,5	;RP0=0, select bank0
  5029     0DBF  1303               	bcf	3,6	;RP1=0, select bank0
  5030     0DC0  00A6               	movwf	clcd_putch@data
  5031     0DC1                     l1605:
  5032                           
  5033                           ;clcd.c: 56: void clcd_putch(const char data, unsigned char addr);clcd.c: 57: {;clcd.c: 
      +                          58:     clcd_write(addr, 0);
  5034     0DC1  01F2               	clrf	clcd_write@mode
  5035     0DC2  0825               	movf	clcd_putch@addr,w
  5036     0DC3  120A  158A  2659  120A  158A  	fcall	_clcd_write
  5037                           
  5038                           ;clcd.c: 59:     clcd_write(data, 1);
  5039     0DC8  01F2               	clrf	clcd_write@mode
  5040     0DC9  0AF2               	incf	clcd_write@mode,f
  5041     0DCA  1283               	bcf	3,5	;RP0=0, select bank0
  5042     0DCB  1303               	bcf	3,6	;RP1=0, select bank0
  5043     0DCC  0826               	movf	clcd_putch@data,w
  5044     0DCD  120A  158A  2659  120A  158A  	fcall	_clcd_write
  5045     0DD2                     l26:
  5046     0DD2  0008               	return
  5047     0DD3                     __end_of_clcd_putch:
  5048                           
  5049                           	psect	text22
  5050     0DFD                     __ptext22:	
  5051 ;; *************** function _display_modes *****************
  5052 ;; Defined at:
  5053 ;;		line 29 in file "micro_oven.c"
  5054 ;; Parameters:    Size  Location     Type
  5055 ;;		None
  5056 ;; Auto vars:     Size  Location     Type
  5057 ;;		None
  5058 ;; Return value:  Size  Location     Type
  5059 ;;                  1    wreg      void 
  5060 ;; Registers used:
  5061 ;;		wreg, fsr0l, fsr0h, status,2, status,0, pclath, btemp1, cstack
  5062 ;; Tracked objects:
  5063 ;;		On entry : 0/0
  5064 ;;		On exit  : 0/0
  5065 ;;		Unchanged: 0/0
  5066 ;; Data sizes:     COMMON   BANK0   BANK1   BANK3   BANK2
  5067 ;;      Params:         0       0       0       0       0
  5068 ;;      Locals:         0       0       0       0       0
  5069 ;;      Temps:          0       0       0       0       0
  5070 ;;      Totals:         0       0       0       0       0
  5071 ;;Total ram usage:        0 bytes
  5072 ;; Hardware stack levels used: 1
  5073 ;; Hardware stack levels required when called: 2
  5074 ;; This function calls:
  5075 ;;		_clcd_print
  5076 ;; This function is called by:
  5077 ;;		_main
  5078 ;; This function uses a non-reentrant model
  5079 ;;
  5080                           
  5081     0DFD                     _display_modes:	
  5082                           ;psect for function _display_modes
  5083                           
  5084     0DFD                     l1953:	
  5085                           ;incstack = 0
  5086                           ; Regs used in _display_modes: [wreg-fsr0h+status,2+status,0+pclath+btemp1+cstack]
  5087                           
  5088                           
  5089                           ;micro_oven.c: 31:     clcd_print("1. Micro", (0x80 + 3));
  5090     0DFD  30C0               	movlw	low (STR_4| (0+32768))
  5091     0DFE  00F6               	movwf	clcd_print@str
  5092     0DFF  3084               	movlw	high (STR_4| (0+32768))
  5093     0E00  00F7               	movwf	clcd_print@str+1
  5094     0E01  3083               	movlw	131
  5095     0E02  00F8               	movwf	clcd_print@addr
  5096     0E03  120A  158A  262A  120A  158A  	fcall	_clcd_print
  5097                           
  5098                           ;micro_oven.c: 32:     clcd_print("2. Grill", (0xC0 + 3));
  5099     0E08  30B7               	movlw	low (STR_5| (0+32768))
  5100     0E09  00F6               	movwf	clcd_print@str
  5101     0E0A  3084               	movlw	high (STR_5| (0+32768))
  5102     0E0B  00F7               	movwf	clcd_print@str+1
  5103     0E0C  30C3               	movlw	195
  5104     0E0D  00F8               	movwf	clcd_print@addr
  5105     0E0E  120A  158A  262A  120A  158A  	fcall	_clcd_print
  5106                           
  5107                           ;micro_oven.c: 33:     clcd_print("3. Convection", (0x90 + 3));
  5108     0E13  306E               	movlw	low (STR_6| (0+32768))
  5109     0E14  00F6               	movwf	clcd_print@str
  5110     0E15  3084               	movlw	high (STR_6| (0+32768))
  5111     0E16  00F7               	movwf	clcd_print@str+1
  5112     0E17  3093               	movlw	147
  5113     0E18  00F8               	movwf	clcd_print@addr
  5114     0E19  120A  158A  262A  120A  158A  	fcall	_clcd_print
  5115                           
  5116                           ;micro_oven.c: 34:     clcd_print("4. Start", (0xD0 + 3));
  5117     0E1E  30C9               	movlw	low (STR_7| (0+32768))
  5118     0E1F  00F6               	movwf	clcd_print@str
  5119     0E20  3084               	movlw	high (STR_7| (0+32768))
  5120     0E21  00F7               	movwf	clcd_print@str+1
  5121     0E22  30D3               	movlw	211
  5122     0E23  00F8               	movwf	clcd_print@addr
  5123     0E24  120A  158A  262A  120A  158A  	fcall	_clcd_print
  5124     0E29                     l233:
  5125     0E29  0008               	return
  5126     0E2A                     __end_of_display_modes:
  5127                           
  5128                           	psect	text23
  5129     0E2A                     __ptext23:	
  5130 ;; *************** function _clcd_print *****************
  5131 ;; Defined at:
  5132 ;;		line 62 in file "clcd.c"
  5133 ;; Parameters:    Size  Location     Type
  5134 ;;  str             2    6[COMMON] PTR const unsigned char 
  5135 ;;		 -> STR_21(11), STR_20(12), STR_19(16), STR_18(11), 
  5136 ;;		 -> STR_17(7), STR_16(8), STR_15(15), STR_14(8), 
  5137 ;;		 -> STR_13(16), STR_12(6), STR_11(14), STR_10(17), 
  5138 ;;		 -> STR_9(6), STR_8(17), STR_7(9), STR_6(14), 
  5139 ;;		 -> STR_5(9), STR_4(9), STR_3(15), STR_2(12), 
  5140 ;;		 -> STR_1(13), 
  5141 ;;  addr            1    8[COMMON] unsigned char 
  5142 ;; Auto vars:     Size  Location     Type
  5143 ;;		None
  5144 ;; Return value:  Size  Location     Type
  5145 ;;                  1    wreg      void 
  5146 ;; Registers used:
  5147 ;;		wreg, fsr0l, fsr0h, status,2, status,0, pclath, btemp1, cstack
  5148 ;; Tracked objects:
  5149 ;;		On entry : 0/0
  5150 ;;		On exit  : 0/0
  5151 ;;		Unchanged: 0/0
  5152 ;; Data sizes:     COMMON   BANK0   BANK1   BANK3   BANK2
  5153 ;;      Params:         3       0       0       0       0
  5154 ;;      Locals:         0       0       0       0       0
  5155 ;;      Temps:          0       0       0       0       0
  5156 ;;      Totals:         3       0       0       0       0
  5157 ;;Total ram usage:        3 bytes
  5158 ;; Hardware stack levels used: 1
  5159 ;; Hardware stack levels required when called: 1
  5160 ;; This function calls:
  5161 ;;		_clcd_write
  5162 ;; This function is called by:
  5163 ;;		_main
  5164 ;;		_display_power_screen
  5165 ;;		_display_modes
  5166 ;;		_set_time
  5167 ;;		_set_temp
  5168 ;;		_display_time
  5169 ;;		_display_preheat
  5170 ;; This function uses a non-reentrant model
  5171 ;;
  5172                           
  5173     0E2A                     _clcd_print:	
  5174                           ;psect for function _clcd_print
  5175                           
  5176     0E2A                     l1607:	
  5177                           ;incstack = 0
  5178                           ; Regs used in _clcd_print: [wreg-fsr0h+status,2+status,0+pclath+btemp1+cstack]
  5179                           
  5180                           
  5181                           ;clcd.c: 62: void clcd_print(const char *str, unsigned char addr);clcd.c: 63: {;clcd.c: 
      +                          64:     clcd_write(addr, 0);
  5182     0E2A  01F2               	clrf	clcd_write@mode
  5183     0E2B  0878               	movf	clcd_print@addr,w
  5184     0E2C  120A  158A  2659  120A  158A  	fcall	_clcd_write
  5185                           
  5186                           ;clcd.c: 66:     while (*str != '\0')
  5187     0E31  2E48               	goto	l1613
  5188     0E32                     l1609:
  5189                           
  5190                           ;clcd.c: 67:     {;clcd.c: 68:         clcd_write(*str, 1);
  5191     0E32  01F2               	clrf	clcd_write@mode
  5192     0E33  0AF2               	incf	clcd_write@mode,f
  5193     0E34  0877               	movf	clcd_print@str+1,w
  5194     0E35  00FF               	movwf	btemp1
  5195     0E36  0876               	movf	clcd_print@str,w
  5196     0E37  0084               	movwf	4
  5197     0E38  120A  158A  2000  120A  158A  	fcall	stringtab
  5198     0E3D  120A  158A  2659  120A  158A  	fcall	_clcd_write
  5199     0E42                     l1611:
  5200                           
  5201                           ;clcd.c: 69:         str++;
  5202     0E42  3001               	movlw	1
  5203     0E43  07F6               	addwf	clcd_print@str,f
  5204     0E44  1803               	skipnc
  5205     0E45  0AF7               	incf	clcd_print@str+1,f
  5206     0E46  3000               	movlw	0
  5207     0E47  07F7               	addwf	clcd_print@str+1,f
  5208     0E48                     l1613:
  5209                           
  5210                           ;clcd.c: 66:     while (*str != '\0')
  5211     0E48  0877               	movf	clcd_print@str+1,w
  5212     0E49  1283               	bcf	3,5	;RP0=0, select bank0
  5213     0E4A  1303               	bcf	3,6	;RP1=0, select bank0
  5214     0E4B  00FF               	movwf	btemp1
  5215     0E4C  0876               	movf	clcd_print@str,w
  5216     0E4D  0084               	movwf	4
  5217     0E4E  120A  158A  2000  120A  158A  	fcall	stringtab
  5218     0E53  3A00               	xorlw	0
  5219     0E54  1D03               	skipz
  5220     0E55  2E57               	goto	u1071
  5221     0E56  2E58               	goto	u1070
  5222     0E57                     u1071:
  5223     0E57  2E32               	goto	l1609
  5224     0E58                     u1070:
  5225     0E58                     l32:
  5226     0E58  0008               	return
  5227     0E59                     __end_of_clcd_print:
  5228                           
  5229                           	psect	text24
  5230     0E59                     __ptext24:	
  5231 ;; *************** function _clcd_write *****************
  5232 ;; Defined at:
  5233 ;;		line 4 in file "clcd.c"
  5234 ;; Parameters:    Size  Location     Type
  5235 ;;  byte            1    wreg     unsigned char 
  5236 ;;  mode            1    2[COMMON] unsigned char 
  5237 ;; Auto vars:     Size  Location     Type
  5238 ;;  byte            1    5[COMMON] unsigned char 
  5239 ;; Return value:  Size  Location     Type
  5240 ;;                  1    wreg      void 
  5241 ;; Registers used:
  5242 ;;		wreg, status,2, status,0
  5243 ;; Tracked objects:
  5244 ;;		On entry : 0/0
  5245 ;;		On exit  : 0/0
  5246 ;;		Unchanged: 0/0
  5247 ;; Data sizes:     COMMON   BANK0   BANK1   BANK3   BANK2
  5248 ;;      Params:         1       0       0       0       0
  5249 ;;      Locals:         1       0       0       0       0
  5250 ;;      Temps:          2       0       0       0       0
  5251 ;;      Totals:         4       0       0       0       0
  5252 ;;Total ram usage:        4 bytes
  5253 ;; Hardware stack levels used: 1
  5254 ;; Hardware stack levels required when called: 1
  5255 ;; This function calls:
  5256 ;;		Nothing
  5257 ;; This function is called by:
  5258 ;;		_init_display_controller
  5259 ;;		_clcd_putch
  5260 ;;		_clcd_print
  5261 ;;		_clear_screen
  5262 ;; This function uses a non-reentrant model
  5263 ;;
  5264                           
  5265     0E59                     _clcd_write:	
  5266                           ;psect for function _clcd_write
  5267                           
  5268                           
  5269                           ;incstack = 0
  5270                           ; Regs used in _clcd_write: [wreg+status,2+status,0]
  5271                           ;clcd_write@byte stored from wreg
  5272     0E59  00F5               	movwf	clcd_write@byte
  5273     0E5A                     l1553:
  5274                           
  5275                           ;clcd.c: 4: static void clcd_write(unsigned char byte, unsigned char mode);clcd.c: 5: {;
      +                          clcd.c: 6:     RE2 = (__bit)mode;
  5276     0E5A  1872               	btfsc	clcd_write@mode,0
  5277     0E5B  2E5D               	goto	u1041
  5278     0E5C  2E61               	goto	u1040
  5279     0E5D                     u1041:
  5280     0E5D  1283               	bcf	3,5	;RP0=0, select bank0
  5281     0E5E  1303               	bcf	3,6	;RP1=0, select bank0
  5282     0E5F  1509               	bsf	9,2	;volatile
  5283     0E60  2E64               	goto	u1054
  5284     0E61                     u1040:
  5285     0E61  1283               	bcf	3,5	;RP0=0, select bank0
  5286     0E62  1303               	bcf	3,6	;RP1=0, select bank0
  5287     0E63  1109               	bcf	9,2	;volatile
  5288     0E64                     u1054:
  5289     0E64                     l1555:
  5290                           
  5291                           ;clcd.c: 8:     PORTD = byte & 0xF0;
  5292     0E64  0875               	movf	clcd_write@byte,w
  5293     0E65  39F0               	andlw	240
  5294     0E66  0088               	movwf	8	;volatile
  5295     0E67                     l1557:
  5296                           
  5297                           ;clcd.c: 9:     RE1 = 1;
  5298     0E67  1489               	bsf	9,1	;volatile
  5299     0E68                     l1559:
  5300                           
  5301                           ;clcd.c: 10:     _delay((unsigned long)((100)*(20000000/4000000.0)));
  5302     0E68  30A6               	movlw	166
  5303     0E69  00F3               	movwf	??_clcd_write
  5304     0E6A                     u3137:
  5305     0E6A  0BF3               	decfsz	??_clcd_write,f
  5306     0E6B  2E6A               	goto	u3137
  5307     0E6C  0000               	nop
  5308     0E6D                     l1561:
  5309                           
  5310                           ;clcd.c: 11:     RE1 = 0;
  5311     0E6D  1283               	bcf	3,5	;RP0=0, select bank0
  5312     0E6E  1303               	bcf	3,6	;RP1=0, select bank0
  5313     0E6F  1089               	bcf	9,1	;volatile
  5314     0E70                     l1563:
  5315                           
  5316                           ;clcd.c: 13:     PORTD = (unsigned char)((byte & 0x0F) << 4);
  5317     0E70  0875               	movf	clcd_write@byte,w
  5318     0E71  390F               	andlw	15
  5319     0E72  00F3               	movwf	??_clcd_write
  5320     0E73  3003               	movlw	3
  5321     0E74                     u1065:
  5322     0E74  1003               	clrc
  5323     0E75  0DF3               	rlf	??_clcd_write,f
  5324     0E76  3EFF               	addlw	-1
  5325     0E77  1D03               	skipz
  5326     0E78  2E74               	goto	u1065
  5327     0E79  1003               	clrc
  5328     0E7A  0D73               	rlf	??_clcd_write,w
  5329     0E7B  0088               	movwf	8	;volatile
  5330     0E7C                     l1565:
  5331                           
  5332                           ;clcd.c: 14:     RE1 = 1;
  5333     0E7C  1489               	bsf	9,1	;volatile
  5334     0E7D                     l1567:
  5335                           
  5336                           ;clcd.c: 15:     _delay((unsigned long)((100)*(20000000/4000000.0)));
  5337     0E7D  30A6               	movlw	166
  5338     0E7E  00F3               	movwf	??_clcd_write
  5339     0E7F                     u3147:
  5340     0E7F  0BF3               	decfsz	??_clcd_write,f
  5341     0E80  2E7F               	goto	u3147
  5342     0E81  0000               	nop
  5343     0E82                     l1569:
  5344                           
  5345                           ;clcd.c: 16:     RE1 = 0;
  5346     0E82  1283               	bcf	3,5	;RP0=0, select bank0
  5347     0E83  1303               	bcf	3,6	;RP1=0, select bank0
  5348     0E84  1089               	bcf	9,1	;volatile
  5349     0E85                     l1571:
  5350                           
  5351                           ;clcd.c: 18:     _delay((unsigned long)((4100)*(20000000/4000000.0)));
  5352     0E85  301B               	movlw	27
  5353     0E86  00F4               	movwf	??_clcd_write+1
  5354     0E87  309E               	movlw	158
  5355     0E88  00F3               	movwf	??_clcd_write
  5356     0E89                     u3157:
  5357     0E89  0BF3               	decfsz	??_clcd_write,f
  5358     0E8A  2E89               	goto	u3157
  5359     0E8B  0BF4               	decfsz	??_clcd_write+1,f
  5360     0E8C  2E89               	goto	u3157
  5361     0E8D  0000               	nop
  5362     0E8E                     l17:
  5363     0E8E  0008               	return
  5364     0E8F                     __end_of_clcd_write:
  5365                           
  5366                           	psect	text25
  5367     0EC9                     __ptext25:	
  5368 ;; *************** function _isr *****************
  5369 ;; Defined at:
  5370 ;;		line 5 in file "isr.c"
  5371 ;; Parameters:    Size  Location     Type
  5372 ;;		None
  5373 ;; Auto vars:     Size  Location     Type
  5374 ;;		None
  5375 ;; Return value:  Size  Location     Type
  5376 ;;                  1    wreg      void 
  5377 ;; Registers used:
  5378 ;;		wreg, status,2, status,0
  5379 ;; Tracked objects:
  5380 ;;		On entry : 0/0
  5381 ;;		On exit  : 0/0
  5382 ;;		Unchanged: 0/0
  5383 ;; Data sizes:     COMMON   BANK0   BANK1   BANK3   BANK2
  5384 ;;      Params:         0       0       0       0       0
  5385 ;;      Locals:         0       0       0       0       0
  5386 ;;      Temps:          2       0       0       0       0
  5387 ;;      Totals:         2       0       0       0       0
  5388 ;;Total ram usage:        2 bytes
  5389 ;; Hardware stack levels used: 1
  5390 ;; This function calls:
  5391 ;;		Nothing
  5392 ;; This function is called by:
  5393 ;;		Interrupt level 1
  5394 ;; This function uses a non-reentrant model
  5395 ;;
  5396                           
  5397     0EC9                     _isr:	
  5398                           ;psect for function _isr
  5399                           
  5400     0EC9                     i1l2251:
  5401                           
  5402                           ;isr.c: 7:     static unsigned int count = 0;;isr.c: 9:     if (TMR2IF == 1)
  5403     0EC9  1283               	bcf	3,5	;RP0=0, select bank0
  5404     0ECA  1303               	bcf	3,6	;RP1=0, select bank0
  5405     0ECB  1C8C               	btfss	12,1	;volatile
  5406     0ECC  2ECE               	goto	u207_21
  5407     0ECD  2ECF               	goto	u207_20
  5408     0ECE                     u207_21:
  5409     0ECE  2EFD               	goto	i1l315
  5410     0ECF                     u207_20:
  5411     0ECF                     i1l2253:
  5412                           
  5413                           ;isr.c: 10:     {;isr.c: 11:         if (++count == 20000)
  5414     0ECF  3001               	movlw	1
  5415     0ED0  07F9               	addwf	isr@count,f
  5416     0ED1  1803               	skipnc
  5417     0ED2  0AFA               	incf	isr@count+1,f
  5418     0ED3  3000               	movlw	0
  5419     0ED4  07FA               	addwf	isr@count+1,f
  5420     0ED5  3020               	movlw	32
  5421     0ED6  0679               	xorwf	isr@count,w
  5422     0ED7  304E               	movlw	78
  5423     0ED8  1903               	skipnz
  5424     0ED9  067A               	xorwf	isr@count+1,w
  5425     0EDA  1D03               	btfss	3,2
  5426     0EDB  2EDD               	goto	u208_21
  5427     0EDC  2EDE               	goto	u208_20
  5428     0EDD                     u208_21:
  5429     0EDD  2EFC               	goto	i1l2269
  5430     0EDE                     u208_20:
  5431     0EDE                     i1l2255:
  5432                           
  5433                           ;isr.c: 12:         {;isr.c: 13:             count = 0;
  5434     0EDE  01F9               	clrf	isr@count
  5435     0EDF  01FA               	clrf	isr@count+1
  5436     0EE0                     i1l2257:
  5437                           
  5438                           ;isr.c: 14:             if(sec > 0)
  5439     0EE0  083C               	movf	_sec,w
  5440     0EE1  1903               	btfsc	3,2
  5441     0EE2  2EE4               	goto	u209_21
  5442     0EE3  2EE5               	goto	u209_20
  5443     0EE4                     u209_21:
  5444     0EE4  2EE7               	goto	i1l311
  5445     0EE5                     u209_20:
  5446     0EE5                     i1l2259:
  5447                           
  5448                           ;isr.c: 15:             {;isr.c: 16:                 sec--;
  5449     0EE5  3001               	movlw	1
  5450     0EE6  02BC               	subwf	_sec,f
  5451     0EE7                     i1l311:	
  5452                           ;isr.c: 17:             }
  5453                           
  5454                           
  5455                           ;isr.c: 18:             if(sec == 0)
  5456     0EE7  083C               	movf	_sec,w
  5457     0EE8  1D03               	btfss	3,2
  5458     0EE9  2EEB               	goto	u210_21
  5459     0EEA  2EEC               	goto	u210_20
  5460     0EEB                     u210_21:
  5461     0EEB  2EF5               	goto	i1l312
  5462     0EEC                     u210_20:
  5463     0EEC                     i1l2261:
  5464                           
  5465                           ;isr.c: 19:             {;isr.c: 20:                 if(min > 0)
  5466     0EEC  083B               	movf	_min,w
  5467     0EED  1903               	btfsc	3,2
  5468     0EEE  2EF0               	goto	u211_21
  5469     0EEF  2EF1               	goto	u211_20
  5470     0EF0                     u211_21:
  5471     0EF0  2EF5               	goto	i1l312
  5472     0EF1                     u211_20:
  5473     0EF1                     i1l2263:
  5474                           
  5475                           ;isr.c: 21:                 {;isr.c: 22:                     min--;
  5476     0EF1  3001               	movlw	1
  5477     0EF2  02BB               	subwf	_min,f
  5478     0EF3                     i1l2265:
  5479                           
  5480                           ;isr.c: 23:                     sec= 60;
  5481     0EF3  303C               	movlw	60
  5482     0EF4  00BC               	movwf	_sec
  5483     0EF5                     i1l312:	
  5484                           ;isr.c: 25:             }
  5485                           
  5486                           
  5487                           ;isr.c: 26:             if(pre_heat > 0)
  5488     0EF5  083A               	movf	_pre_heat,w
  5489     0EF6  1903               	btfsc	3,2
  5490     0EF7  2EF9               	goto	u212_21
  5491     0EF8  2EFA               	goto	u212_20
  5492     0EF9                     u212_21:
  5493     0EF9  2EFC               	goto	i1l2269
  5494     0EFA                     u212_20:
  5495     0EFA                     i1l2267:
  5496                           
  5497                           ;isr.c: 27:             {;isr.c: 28:                 pre_heat--;
  5498     0EFA  3001               	movlw	1
  5499     0EFB  02BA               	subwf	_pre_heat,f
  5500     0EFC                     i1l2269:
  5501                           
  5502                           ;isr.c: 32:         TMR2IF = 0;
  5503     0EFC  108C               	bcf	12,1	;volatile
  5504     0EFD                     i1l315:
  5505     0EFD  0871               	movf	??_isr+1,w
  5506     0EFE  008A               	movwf	10
  5507     0EFF  0E70               	swapf	??_isr,w
  5508     0F00  0083               	movwf	3
  5509     0F01  0EFE               	swapf	btemp,f
  5510     0F02  0E7E               	swapf	btemp,w
  5511     0F03  0009               	retfie
  5512     0F04                     __end_of_isr:
  5513     0002                     ___latbits      equ	2
  5514     007E                     btemp           set	126	;btemp
  5515     007E                     btemp0          set	126
  5516     007F                     btemp1          set	127
  5517     007E                     wtemp0          set	126
  5518     007F                     wtemp0a         set	127
  5519     007F                     ttemp0a         set	127
  5520     0080                     ltemp0a         set	128
  5521                           
  5522                           	psect	intentry
  5523     0004                     __pintentry:	
  5524                           ;incstack = 0
  5525                           ; Regs used in _isr: [wreg+status,2+status,0]
  5526                           
  5527     0004                     interrupt_function:
  5528     007E                     saved_w         set	btemp
  5529     0004  00FE               	movwf	btemp
  5530     0005  0E03               	swapf	3,w
  5531     0006  00F0               	movwf	??_isr
  5532     0007  080A               	movf	10,w
  5533     0008  00F1               	movwf	??_isr+1
  5534     0009  120A  158A  2EC9   	ljmp	_isr
  5535                           
  5536                           	psect	config
  5537                           
  5538                           ;Config register CONFIG @ 0x2007
  5539                           ;	Oscillator Selection bits
  5540                           ;	FOSC = 0x3, unprogrammed default
  5541                           ;	Watchdog Timer Enable bit
  5542                           ;	WDTE = OFF, WDT disabled
  5543                           ;	Power-up Timer Enable bit
  5544                           ;	PWRTE = 0x1, unprogrammed default
  5545                           ;	Brown-out Reset Enable bit
  5546                           ;	BOREN = 0x1, unprogrammed default
  5547                           ;	Low-Voltage (Single-Supply) In-Circuit Serial Programming Enable bit
  5548                           ;	LVP = 0x1, unprogrammed default
  5549                           ;	Data EEPROM Memory Code Protection bit
  5550                           ;	CPD = 0x1, unprogrammed default
  5551                           ;	Flash Program Memory Write Enable bits
  5552                           ;	WRT = 0x3, unprogrammed default
  5553                           ;	In-Circuit Debugger Mode bit
  5554                           ;	DEBUG = 0x1, unprogrammed default
  5555                           ;	Flash Program Memory Code Protection bit
  5556                           ;	CP = 0x1, unprogrammed default
  5557     2007                     	org	8199
  5558     2007  3FFB               	dw	16379

Data Sizes:
    Strings     245
    Constant    0
    Data        3
    BSS         15
    Persistent  0
    Stack       0

Auto Spaces:
    Space          Size  Autos    Used
    COMMON           14      9      12
    BANK0            80     16      31
    BANK1            80      0       0
    BANK3            96      0       0
    BANK2            96      0       0

Pointer List with Targets:

    clcd_print@str	PTR const unsigned char  size(2) Largest target is 17
		 -> STR_1(CODE[13]), STR_10(CODE[17]), STR_11(CODE[14]), STR_12(CODE[6]), 
		 -> STR_13(CODE[16]), STR_14(CODE[8]), STR_15(CODE[15]), STR_16(CODE[8]), 
		 -> STR_17(CODE[7]), STR_18(CODE[11]), STR_19(CODE[16]), STR_2(CODE[12]), 
		 -> STR_20(CODE[12]), STR_21(CODE[11]), STR_3(CODE[15]), STR_4(CODE[9]), 
		 -> STR_5(CODE[9]), STR_6(CODE[14]), STR_7(CODE[9]), STR_8(CODE[17]), 
		 -> STR_9(CODE[6]), 


Critical Paths under _main in COMMON

    _main->_clcd_print
    _set_time->___bmul
    _set_time->_clcd_print
    ___bmul->___awmod
    _set_temp->___lwdiv
    _set_temp->_clcd_print
    ___lwmod->___lwdiv
    _read_matrix_keypad->_scan_keypad
    _init_clcd->_init_display_controller
    _init_display_controller->_clcd_write
    _display_time->_clcd_print
    _display_preheat->_clcd_print
    _clear_screen->_clcd_write
    _display_power_screen->_clcd_print
    _clcd_putch->___lwdiv
    _display_modes->_clcd_print
    _clcd_print->_clcd_write

Critical Paths under _isr in COMMON

    None.

Critical Paths under _main in BANK0

    _main->_display_power_screen
    _set_time->_clcd_putch
    _set_temp->_clcd_putch
    _display_time->_clcd_putch
    _display_preheat->_clcd_putch
    _display_power_screen->_clcd_putch
    _clcd_putch->___lwmod

Critical Paths under _isr in BANK0

    None.

Critical Paths under _main in BANK1

    None.

Critical Paths under _isr in BANK1

    None.

Critical Paths under _main in BANK3

    None.

Critical Paths under _isr in BANK3

    None.

Critical Paths under _main in BANK2

    None.

Critical Paths under _isr in BANK2

    None.

Call Graph Tables:

 ---------------------------------------------------------------------------------
 (Depth) Function   	        Calls       Base Space   Used Autos Params    Refs
 ---------------------------------------------------------------------------------
 (0) _main                                                 4     4      0    7292
                                             12 BANK0      4     4      0
                         _clcd_print
                       _clear_screen
                      _display_modes
               _display_power_screen
                    _display_preheat
                       _display_time
                          _heat_food
                        _init_config
                 _read_matrix_keypad
                           _set_temp
                           _set_time
 ---------------------------------------------------------------------------------
 (1) _set_time                                             4     3      1    1719
                                              7 BANK0      4     3      1
                            ___awdiv
                            ___awmod
                             ___bmul
                         _clcd_print
                         _clcd_putch
                       _clear_screen
 ---------------------------------------------------------------------------------
 (2) ___bmul                                               3     2      1      33
                                              8 COMMON     1     0      1
                                              0 BANK0      2     2      0
                            ___awmod (ARG)
 ---------------------------------------------------------------------------------
 (1) _set_temp                                             2     1      1    1281
                                              7 BANK0      2     1      1
                            ___lwdiv
                            ___lwmod
                             ___wmul
                         _clcd_print
                         _clcd_putch
                       _clear_screen
 ---------------------------------------------------------------------------------
 (2) ___wmul                                               6     2      4      94
                                              2 COMMON     6     2      4
 ---------------------------------------------------------------------------------
 (2) ___lwmod                                              5     1      4     244
                                              0 BANK0      5     1      4
                            ___lwdiv (ARG)
 ---------------------------------------------------------------------------------
 (2) ___lwdiv                                              7     3      4     166
                                              2 COMMON     7     3      4
 ---------------------------------------------------------------------------------
 (1) _read_matrix_keypad                                   2     2      0     279
                                              4 COMMON     2     2      0
                        _scan_keypad
 ---------------------------------------------------------------------------------
 (2) _scan_keypad                                          2     2      0     161
                                              2 COMMON     2     2      0
 ---------------------------------------------------------------------------------
 (1) _init_config                                          0     0      0      92
                          _init_clcd
                 _init_matrix_keypad
                        _init_timer2
 ---------------------------------------------------------------------------------
 (2) _init_timer2                                          0     0      0       0
 ---------------------------------------------------------------------------------
 (2) _init_matrix_keypad                                   0     0      0       0
 ---------------------------------------------------------------------------------
 (2) _init_clcd                                            0     0      0      92
            _init_display_controller
 ---------------------------------------------------------------------------------
 (3) _init_display_controller                              2     2      0      92
                                              6 COMMON     2     2      0
                         _clcd_write
 ---------------------------------------------------------------------------------
 (1) _heat_food                                            0     0      0       0
 ---------------------------------------------------------------------------------
 (1) _display_time                                         3     3      0    1218
                                              7 BANK0      3     3      0
                            ___awdiv
                            ___awmod
                         _clcd_print
                         _clcd_putch
                       _clear_screen
 ---------------------------------------------------------------------------------
 (1) _display_preheat                                      2     2      0    1218
                                              7 BANK0      2     2      0
                            ___awdiv
                            ___awmod
                         _clcd_print
                         _clcd_putch
                       _clear_screen
 ---------------------------------------------------------------------------------
 (2) _clear_screen                                         2     2      0      92
                                              6 COMMON     2     2      0
                         _clcd_write
 ---------------------------------------------------------------------------------
 (2) ___awmod                                              6     2      4     298
                                              2 COMMON     6     2      4
 ---------------------------------------------------------------------------------
 (2) ___awdiv                                              8     4      4     459
                                              2 COMMON     4     0      4
                                              0 BANK0      4     4      0
 ---------------------------------------------------------------------------------
 (1) _display_power_screen                                 5     5      0     505
                                              7 BANK0      5     5      0
                         _clcd_print
                         _clcd_putch
 ---------------------------------------------------------------------------------
 (2) _clcd_putch                                           2     1      1     168
                                              5 BANK0      2     1      1
                            ___awdiv (ARG)
                            ___awmod (ARG)
                            ___lwdiv (ARG)
                            ___lwmod (ARG)
                         _clcd_write
 ---------------------------------------------------------------------------------
 (1) _display_modes                                        0     0      0     201
                         _clcd_print
 ---------------------------------------------------------------------------------
 (2) _clcd_print                                           3     0      3     201
                                              6 COMMON     3     0      3
                         _clcd_write
 ---------------------------------------------------------------------------------
 (4) _clcd_write                                           4     3      1      92
                                              2 COMMON     4     3      1
 ---------------------------------------------------------------------------------
 Estimated maximum stack depth 4
 ---------------------------------------------------------------------------------
 (Depth) Function   	        Calls       Base Space   Used Autos Params    Refs
 ---------------------------------------------------------------------------------
 (5) _isr                                                  2     2      0       0
                                              0 COMMON     2     2      0
 ---------------------------------------------------------------------------------
 Estimated maximum stack depth 5
 ---------------------------------------------------------------------------------

 Call Graph Graphs:

 _main (ROOT)
   _clcd_print
     _clcd_write
   _clear_screen
     _clcd_write
   _display_modes
     _clcd_print
   _display_power_screen
     _clcd_print
     _clcd_putch
       ___awdiv (ARG)
       ___awmod (ARG)
       ___lwdiv (ARG)
       ___lwmod (ARG)
         ___lwdiv (ARG)
       _clcd_write (ARG)
   _display_preheat
     ___awdiv
     ___awmod
     _clcd_print
     _clcd_putch
     _clear_screen
   _display_time
     ___awdiv
     ___awmod
     _clcd_print
     _clcd_putch
     _clear_screen
   _heat_food
   _init_config
     _init_clcd
       _init_display_controller
         _clcd_write
     _init_matrix_keypad
     _init_timer2
   _read_matrix_keypad
     _scan_keypad
   _set_temp
     ___lwdiv
     ___lwmod
     ___wmul
     _clcd_print
     _clcd_putch
     _clear_screen
   _set_time
     ___awdiv
     ___awmod
     ___bmul
       ___awmod (ARG)
     _clcd_print
     _clcd_putch
     _clear_screen

 _isr (ROOT)

Address spaces:
Name               Size   Autos  Total    Usage
BANK3               96      0       0      0.0%
BITBANK3            96      0       0      0.0%
BANK2               96      0       0      0.0%
BITBANK2            96      0       0      0.0%
BANK1               80      0       0      0.0%
BITBANK1            80      0       0      0.0%
BANK0               80     16      31     38.8%
BITBANK0            80      0       0      0.0%
COMMON              14      9      12     85.7%
BITCOMMON           14      0       0      0.0%
DATA                 0      0      44      0.0%
STACK                0      0       0      0.0%


Microchip Technology PIC Macro Assembler V3.10 build 20250813170317 
Symbol Table                                                                                   Tue Jan 20 16:40:57 2026

                              pc 0002                   ___bmul@product 0020                   clcd_print@addr 0078  
                             l20 0FFF                               l23 0D9C                               l32 0E58  
                             l17 0E8E                               l26 0DD2                               l35 0DBD  
                             l84 0DE7                     ___awdiv@sign 0021                               fsr 0004  
            ___wmul@multiplicand 0074               _init_matrix_keypad 0D9D                              l111 02B0  
                            l120 028B                              l230 0702                              l151 05F2  
                            l119 0288                              l160 0629                              l152 05FA  
                            l233 0E29                              l161 0635                              l153 0694  
                            l401 07E1                              l146 0DAC                              l162 062F  
                            l154 0606                              l155 0600                              l403 07F9  
                            l173 067F                              l174 0687                              l166 0650  
                            l167 0658                              l159 0621                              l176 068D  
                            l168 0664                              l184 03F6                              l280 03D3  
                            l169 065E                              l290 0D91                              l258 019A  
                            l427 0DFC                              l197 03FF                              l294 076F  
                            l287 05D9                              l554 07D4                              l567 0F9C  
                            l681 0F45                              l691 0EC8                              _GIE 005F  
                            _RB0 0030                              _RB1 0031                              _RB2 0032  
                            _RC2 003A                              _RD0 0040                              _RD1 0041  
                            _RD2 0042                              _RE1 0049                              _RD3 0043  
                            _RE2 004A                              _PR2 0092                    ?_display_time 0070  
                            _min 003B                              _sec 003C                              _isr 0EC9  
                 clcd_putch@addr 0025                              fsr0 0004                   clcd_putch@data 0026  
                            indf 0000                     ___awmod@sign 0077              ?_init_matrix_keypad 0070  
                           l2301 078B                             l2141 0D8E                             l2311 07A1  
                           l2303 0791                             l2143 0D8F                             l2135 0D88  
                           l2313 07B2                             l2305 0794                             l2321 07C6  
                           l2137 0D8C                             l1601 0D96                             l1611 0E42  
                           l2323 07CB                             l2315 07B8                             l2307 079B  
                           l2139 0D8D                             l1603 0D97                             l2331 0E97  
                           l1613 0E48                             l1605 0DC1                             l2325 07D0  
                           l2317 07B9                             l2309 079D                             l2501 0540  
                           l1621 0DA5                             l2341 0EB1                             l2333 0E9A  
                           l2421 02C4                             l1607 0E2A                             l2319 07C0  
                           l1615 0DAD                             l2511 0597                             l2503 055B  
                           l1623 0DA6                             l1631 03F7                             l1703 0662  
                           l2343 0EB7                             l2335 0EA1                             l2431 02F2  
                           l2423 02C9                             l1561 0E6D                             l1553 0E5A  
                           l1609 0E32                             l1801 0F50                             l1617 0DB4  
                           l2521 05AC                             l2513 059E                             l2505 0576  
                           l1625 0DA9                             l1713 066C                             l1633 05DA  
                           l2345 0EBE                             l2337 0EA3                             l2329 0E8F  
                           l2433 02F8                             l2441 031D                             l2425 02D4  
                           l2417 02BB                             l1571 0E85                             l1563 0E70  
                           l1555 0E64                             l2291 077C                             l1811 0F64  
                           l1803 0F52                             l2523 05B7                             l2515 05A3  
                           l2507 0581                             l1627 0DAA                             l1619 0D9D  
                           l1723 068B                             l1715 0672                             l1707 0668  
                           l1651 0604                             l1635 05E0                             l2339 0EA7  
                           l2347 0EC4                             l2451 033A                             l2443 0323  
                           l2435 02FD                             l2427 02DF                             l2419 02C1  
                           l1565 0E7C                             l1557 0E67                             l2293 077E  
                           l2285 0770                             l1821 0F81                             l1813 0F6B  
                           l1805 0F56                             l2525 05C2                             l2517 05A8  
                           l2509 058C                             l1581 0FC1                             l1573 0F9D  
                           l1629 0DAB                             l1733 0693                             l1717 0685  
                           l1661 060E                             l1645 05FE                             l1637 05E4  
                           l1901 03E2                             l1741 07DB                             l2453 033C  
                           l2445 0327                             l2437 0303                             l2461 0347  
                           l2429 02EA                             l2701 00EF                             l1567 0E7D  
                           l1559 0E68                             l2295 0782                             l2287 0773  
                           l1823 0F88                             l1815 0F6D                             l1807 0F5B  
                           l2527 05D0                             l2519 05AB                             l1591 0FE3  
                           l1583 0FC8                             l1575 0FA5                             l1671 062D  
                           l1663 0614                             l1655 060A                             l1639 05F8  
                           l1903 03E7                             l1743 07E8                             l2471 037A  
                           l2463 034F                             l2455 033D                             l2447 032D  
                           l2439 031A                             l2711 010A                             l2703 00F7  
                           l1569 0E82                             l1921 0695                             l2297 0787  
                           l2289 0777                             l1817 0F71                             l1809 0F61  
                           l1825 0F8E                             l2481 0759                             l2473 0703  
                           l2529 05D5                             l1593 0FF3                             l1585 0FCB  
                           l1577 0FAC                             l1729 0691                             l1681 0639  
                           l1665 0627                             l1905 03EC                             l1913 03EE  
                           l1841 0F16                             l1833 0F04                             l1745 07EF  
                           l1737 07D5                             l2465 0350                             l2457 0342  
                           l2449 0336                             l2641 0DF0                             l2713 011D  
                           l2705 00F8                             l2801 0255                             l2721 01A9  
                           l1931 06AF                             l2299 0789                             l1827 0F93  
                           l1819 0F7B                             l2491 076D                             l2483 0760  
                           l2475 0719                             l1595 0FFA                             l1587 0FD2  
                           l1579 0FBC                             l1691 0656                             l1915 03F3  
                           l1851 0F34                             l1843 0F18                             l1835 0F06  
                           l1747 07F5                             l1739 07D7                             l2467 0358  
                           l2643 0DF2                             l2715 0130                             l2707 0100  
                           l2651 0037                             l2811 027C                             l2803 025B  
                           l2731 01BA                             l2723 01AF                             l1933 06B3  
                           l1829 0F98                             l2485 0762                             l2477 0734  
                           l2493 04F5                             l1589 0FDE                             l1597 0D92  
                           l1677 0633                             l1917 03F5                             l1853 0F3B  
                           l1845 0F1C                             l1837 0F0C                             l2469 035D  
                           l2645 0DF4                             l2637 0DEB                             l2709 0105  
                           l2661 0059                             l2653 0038                             l2813 0282  
                           l2805 0264                             l2821 028E                             l2733 01BF  
                           l2725 01B4                             l2741 01E2                             l2717 019B  
                           l1951 06F3                             l1943 06D2                             l1935 06B9  
                           l1927 0698                             l2487 0764                             l2479 074F  
                           l2495 0500                             l1599 0D95                             l1687 063D  
                           l1847 0F2D                             l1839 0F0F                             l1855 0F41  
                           l2647 0DFB                             l2639 0DEC                             l2671 0080  
                           l2663 0063                             l2655 003E                             l2807 026D  
                           l2743 01E8                             l2735 01CA                             l2727 01B6  
                           l2719 01A0                             l1953 0DFD                             l1945 06DB  
                           l1937 06CF                             l1929 06A1                             l2489 0769  
                           l2497 051B                             l1881 0DD3                             l1697 065C  
                           l1689 0643                             l1849 0F33                             l2681 00AC  
                           l2673 009C                             l2665 006E                             l2657 0043  
                           l2809 0276                             l2745 01EA                             l2753 01EF  
                           l2737 01D8                             l2729 01B8                             l1947 06E9  
                           l1795 0F46                             l2499 0536                             l1883 0DDD  
                           l1891 03D5                             l2691 00DD                             l2683 00B2  
                           l2675 009E                             l2667 0075                             l2659 004E  
                           l2755 01F5                             l2747 01EC                             l2739 01DD  
                           l2771 020A                             l1949 06ED                             l1797 0F47  
                           l1885 0DE2                             l1893 03DB                             l2693 00E3  
                           l2685 00CE                             l2677 00A4                             l2669 007B  
                           l2781 0223                             l2773 0210                             l2757 01F7  
                           l2765 01FC                             l1799 0F4B                             l1887 0DE5  
                           l1895 03E0                             l2695 00E5                             l2679 00A7  
                           l2687 00D1                             l2791 023B                             l2783 0229  
                           l2775 0216                             l2767 0202                             l2759 01F9  
                           l1889 0DE6                             l2697 00EA                             l2689 00D7  
                           l2793 0241                             l2785 022C                             l2777 0218  
                           l2769 0204                             l2795 0246                             l2787 0232  
                           l2779 021E                             l2797 024B                             l2789 0235  
                           l2799 0250                             ?_isr 0070                             STR_1 047C  
                           STR_2 0495                             STR_3 0451                             STR_4 04C0  
                           STR_5 04B7                             STR_6 046E                             STR_7 04C9  
                           STR_8 0400                             STR_9 04E9                             u1100 05FE  
                           u1101 05FD                             u1110 0604                             u1111 0603  
                           u1040 0E61                             u1200 067F                             u1120 0621  
                           u1041 0E5D                             u1201 067E                             u1121 0620  
                           u1210 0685                             u1130 0627                             u1211 0684  
                           u1131 0626                             u1220 068B                             u1140 062D  
                           u1221 068A                             u1205 067B                             u1141 062C  
                           u1125 061D                             u1054 0E64                             u1070 0E58  
                           u1230 0691                             u1150 0633                             u1071 0E57  
                           u1231 0690                             u1151 0632                             u1400 0F61  
                           u1160 0650                             u1080 05F2                             u1240 07DB  
                           u1065 0E74                             u1401 0F60                             u1161 064F  
                           u1081 05F1                             u1241 07DA                             u2210 07B2  
                           u1170 0656                             u1090 05F8                             u2211 07B1  
                           u1171 0655                             u1091 05F7                             u1420 0F71  
                           u1180 065C                             u2300 0EC4                             u2205 07A2  
                           u1421 0F70                             u1181 065B                             u1165 064C  
                           u2301 0EC3                             u2230 07C6                             u2150 0777  
                           u1430 0F7B                             u1190 0662                             u1510 0F2D  
                           u1270 07F5                             u2231 07C5                             u2215 07AE  
                           u2151 0776                             u1431 0F7A                             u1415 0F65  
                           u1191 0661                             u1511 0F2C                             u1271 07F4  
                           u1255 07E2                             u3007 01D2                             u2240 07CB  
                           u2160 0782                             u1600 03E0                             u2241 07CA  
                           u2225 07BA                             u2161 0781                             u3017 0FA1  
                           u1601 03DF                             u1505 0F1D                             u1265 07E9  
                           u2170 0791                             u1450 0F8E                             u1610 03E7  
                           u1530 0F41                             u2250 0E97                             u3107 06A9  
                           u2171 0790                             u1451 0F8D                             u1435 0F77  
                           u3027 0FB0                             u1611 03E6                             u1531 0F40  
                           u1515 0F29                             u2251 0E96                             u1460 0F93  
                           u1380 0F4B                             u1620 03EC                             u2500 0323  
                           u3117 06E3                             u1461 0F92                             u1445 0F82  
                           u1381 0F4A                             u3037 0FBE                             u1621 03EB  
                           u1525 0F35                             u2501 0322                             u2190 07A1  
                           u1390 0F56                             u1630 03F3                             u1470 0F0C  
                           u2270 0EA7                             u2510 032D                             u3127 06FB  
                           u2191 07A0                             u1391 0F55                             u3047 0FD4  
                           u1631 03F2                             u1471 0F0B                             u2271 0EA6  
                           u2511 032C                             u1640 06B9                             u2280 0EB1  
                           u2520 0336                             u3137 0E6A                             u1641 06B8  
                           u2185 0795                             u3057 0FE0                             u2281 0EB0  
                           u2265 0E9B                             u2521 0335                             u1650 06F3  
                           u1490 0F1C                             u2530 034F                             u2450 02C1  
                           u3147 0E7F                             u1651 06F2                             u3067 0FEE  
                           u1491 0F1B                             u2531 034E                             u2451 02C0  
                           u2540 0356                             u2460 02F2                             u3157 0E89  
                           u3077 0FFC                             u1485 0F10                             u2285 0EAD  
                           u2541 0354                             u2461 02F1                             u2550 0357  
                           u2470 02F8                             u3087 05CA                             u2295 0EB8  
                           u2471 02F7                             u2560 035D                             u2480 02FD  
                           u2720 0DF0                             u2800 00B2                             u3097 0DB8  
                           u2561 035C                             u2481 02FC                             u2721 0DEF  
                           u2801 00B1                             u2570 0760                             u2490 0303  
                           u2730 0DFB                             u2810 00D7                             u2571 075F  
                           u2491 0302                             u2731 0DFA                             u2811 00D6  
                           u2580 059E                             u2820 00E3                             u2740 003E  
                           u2900 01E8                             u2581 059D                             u2821 00E2  
                           u2741 003D                             u2901 01E7                             u2590 05A3  
                           u2830 00F7                             u2750 0075                             u2910 01F5  
                           u2591 05A2                             u2831 00F6                             u2751 0074  
                           u2911 01F4                             u2840 00FE                             u2760 007B  
                           u2920 0202                             u2841 00FC                             u2761 007A  
                           u2921 0201                             u2850 00FF                             u2770 0080  
                           u2930 0210                             u2771 007F                             u2931 020F  
                           _PEIE 005E                             u2860 0105                             u2780 00A4  
                           u2940 0216                             u2861 0104                             u2781 00A3  
                           u2941 0215                             u2870 010A                             u2790 00AC  
                           u2950 021E                             u2871 0109                             u2791 00AB  
                           u2951 021D                             u2960 0229                             u2880 01AF  
                           u2961 0228                             u2881 01AE                             u2970 0232  
                           u2890 01B4                             u2971 0231                             u2891 01B3  
                           u2980 023B                             u2981 023A                             u2990 0241  
                           u2991 0240                   ?_display_modes 0070                             _main 019B  
        __end_of_display_preheat 0770                             _temp 0030                             btemp 007E  
                           start 000C                ___bmul@multiplier 0021             ??_init_matrix_keypad 0072  
                 clcd_write@byte 0075                   clcd_write@mode 0072                            ??_isr 0070  
           _display_power_screen 0695                            ?_main 0070                   ??_display_time 0027  
                __end_of___awdiv 07D5                            STR_10 0411                            STR_11 0460  
                          STR_12 04EF                            STR_20 0489                            STR_21 04AC  
                          STR_13 0422                            STR_14 04D2                            STR_15 0442  
                          STR_16 04DA                            STR_17 04E2                            STR_18 04A1  
                          STR_19 0432                  __end_of___awmod 0F9D                  ___awdiv@divisor 0072  
                __end_of___lwdiv 0F46                            i1l311 0EE7                            i1l312 0EF5  
                          i1l315 0EFD                  __end_of___lwmod 0EC9                     ?_init_config 0070  
                ___awdiv@counter 0020                            _PORTD 0008                            _TRISB 0086  
                          _TRISD 0088                     ?_init_timer2 0070             __end_of_clear_screen 0DBE  
                          _nRBPU 040F               _read_matrix_keypad 03D4                            btemp0 007E  
                          btemp1 007F                            pclath 000A              ?_read_matrix_keypad 0070  
                          status 0003                            wtemp0 007E                     ?_scan_keypad 0070  
                __initialization 000F                     __end_of_main 02B8            ?_display_power_screen 0070  
           ??_read_matrix_keypad 0074                           ??_main 002C                  ??_display_modes 0079  
               ___awdiv@dividend 0074                           i1l2251 0EC9                           i1l2261 0EEC  
                         i1l2253 0ECF                           i1l2263 0EF1                           i1l2255 0EDE  
                         i1l2265 0EF3                           i1l2257 0EE0                           i1l2267 0EFA  
                         i1l2259 0EE5                           i1l2269 0EFC                           u210_20 0EEC  
                         u210_21 0EEB                           u211_20 0EF1                           u211_21 0EF0  
                         u212_20 0EFA                           u212_21 0EF9                           u207_20 0ECF  
                         u207_21 0ECE                           u208_20 0EDE                           u208_21 0EDD  
                         u209_20 0EE5                           u209_21 0EE4                           _TMR2IE 0461  
                         _TMR2IF 0061                           _TMR2ON 0092                           _TRISC2 043A  
                         _TRISE1 0449                           _TRISE2 044A                 ?_display_preheat 0070  
                         ___bmul 0DE8          _init_display_controller 0F9D                           ___wmul 07D5  
                      ??___awdiv 0076                        ??___awmod 0076                        ??___lwdiv 0076  
                      ??___lwmod 0079                 ___awdiv@quotient 0022                  ___awmod@divisor 0072  
                ___awmod@counter 0076                     __pdataCOMMON 007B                 __end_of_set_temp 03D4  
               __end_of_set_time 019B                           ltemp0a 0080                           saved_w 007E  
                         ttemp0a 007F                           wtemp0a 007F          __end_of__initialization 0030  
           __end_of_display_time 05DA              ___bmul@multiplicand 0078                   __pcstackCOMMON 0070  
                   __pidataBANK0 07FA           ??_display_power_screen 0027        display_power_screen@i_160 002B  
                     __pbssBANK0 0030        ??_init_display_controller 0076                       _clcd_print 0E2A  
                     _clcd_putch 0DBE                       _clcd_write 0E59                       __pmaintext 019B  
                   _clear_screen 0DAD                          ?___bmul 0078                          ?___wmul 0072  
                     __pintentry 0004                       __stringtab 0800                __end_of_heat_food 0D92  
                      ?_set_temp 0027                        ?_set_time 0027                          ___awdiv 0770  
                        ___awmod 0F46                          ___lwdiv 0F04                          ___lwmod 0E8F  
                        __ptext1 0034                          __ptext2 0DE8                          __ptext3 02B8  
                        __ptext4 07D5                          __ptext5 0E8F                          __ptext6 0F04  
                        __ptext7 03D4                          __ptext8 05DA                          __ptext9 0DD3  
__end_of_init_display_controller 1000                __end_of_init_clcd 0D9D                 ___awmod@dividend 0074  
                        main@key 002F             end_of_initialization 0030                      set_temp@key 0028  
                    set_time@key 002A                      ?_clcd_print 0076                      ?_clcd_putch 0025  
                    ?_clcd_write 0072            set_temp@display_blank 0032                       _reset_flag 003D  
                     ??_set_temp 0079                       ??_set_time 0028                     __pstringtext 0400  
          display_power_screen@i 002A                     _display_time 04F5                    clcd_print@str 0076  
          __end_of_display_modes 0E2A               set_temp@reset_flag 0027                   __end_of___bmul 0DFD  
                 __end_of___wmul 07FA                    __pidataCOMMON 07FC              start_initialization 000F  
                   scan_keypad@i 0072               set_time@edit_field 0037           read_matrix_keypad@mode 0074  
         read_matrix_keypad@once 007B                      __end_of_isr 0F04                         ??___bmul 0079  
                       ??___wmul 0076                      __pdataBANK0 003D                    ??_init_config 0078  
                  ??_init_timer2 0072                      __pbssCOMMON 0079                        ___latbits 0002  
                  __pcstackBANK0 0020               set_time@min_digits 0038                    ??_scan_keypad 0072  
             set_time@sec_digits 0039                 ___lwdiv@dividend 0074                         ?___awdiv 0072  
                       ?___awmod 0072                        _heat_food 0D88                         ?___lwdiv 0072  
                       ?___lwmod 0020                        __pstrings 0800                ??_display_preheat 0027  
             set_time@reset_flag 0027                 ___lwdiv@quotient 0076                        _init_clcd 0D92  
            __end_of_init_config 0DE8              __end_of_init_timer2 0400         ?_init_display_controller 0070  
              interrupt_function 0004                   ___wmul@product 0076                     ??_clcd_print 0079  
                   ??_clcd_putch 0079       __end_of_init_matrix_keypad 0DAD                     ??_clcd_write 0073  
              set_temp@key_count 0034              __end_of_scan_keypad 0695                       ?_heat_food 0070  
                    __stringbase 0812                ___wmul@multiplier 0072               __end_of_clcd_print 0E59  
             __end_of_clcd_putch 0DD3               __end_of_clcd_write 0E8F                       ?_init_clcd 0070  
          read_matrix_keypad@key 0075                    set_temp@delay 0033                    set_time@delay 0036  
     __end_of_read_matrix_keypad 03F7            set_time@display_blank 0035               __end_of__stringtab 0812  
                    _init_config 0DD3                      _init_timer2 03F7                  ___lwdiv@divisor 0072  
                ___lwdiv@counter 0078                         __ptext10 03F7                         __ptext11 0D9D  
                       __ptext20 0695                         __ptext12 0D92                         __ptext21 0DBE  
                       __ptext13 0F9D                         __ptext22 0DFD                         __ptext14 0D88  
                       __ptext23 0E2A                         __ptext15 04F5                         __ptext24 0E59  
                       __ptext16 0703                         __ptext25 0EC9                         __ptext17 0DAD  
                       __ptext18 0F46                         __ptext19 0770                      _scan_keypad 05DA  
                       _pre_heat 003A                    ?_clear_screen 0070                         _set_temp 02B8  
                       _set_time 0034                      ??_heat_food 0072                         isr@count 0079  
                    ??_init_clcd 0078                         intlevel1 0000     __end_of_display_power_screen 0703  
                    _screen_flag 003E                 ___lwmod@dividend 0022                        stringcode 080A  
                 ??_clear_screen 0076                  _display_preheat 0703                  ___lwmod@divisor 0020  
                ___lwmod@counter 0024                         stringtab 0800                    _display_modes 0DFD  
